ccopy_reg
_reconstructor
p0
(cpsychopy.data.experiment
ExperimentHandler
p1
c__builtin__
object
p2
Ntp3
Rp4
(dp5
S'originPath'
p6
VC:\u005cUsers\u005cjekiat\u005cDesktop\u005cFinalized_Psychopy\u005cT1_T2\u005cT1_T2_800ms.psyexp
p7
sS'dataFileName'
p8
VC:\u005cUsers\u005cjekiat\u005cDesktop\u005cFinalized_Psychopy\u005cT1_T2\u005cdata/006_T1_T2_800ms_2018_Oct_02_1431
p9
sS'runtimeInfo'
p10
NsS'name'
p11
S'T1_T2_800ms'
p12
sS'dataNames'
p13
(lp14
S'T1'
p15
aS'T2'
p16
aS'T2_Resp.keys'
p17
aS'T2_Resp.corr'
p18
aS'T2_Resp.rt'
p19
aS'T1_Resp.keys'
p20
aS'T1_Resp.corr'
p21
aS'T1_Resp.rt'
p22
aS'Task_Ender.keys'
p23
aS'Task_Ender.rt'
p24
asS'autoLog'
p25
I01
sS'extraInfo'
p26
(dp27
S'date'
p28
V2018_Oct_02_1431
p29
sS'frameRate'
p30
cnumpy.core.multiarray
scalar
p31
(cnumpy
dtype
p32
(S'f8'
p33
I0
I1
tp34
Rp35
(I3
S'<'
p36
NNNI-1
I-1
I0
tp37
bS'\xd0G[\xf8\x0b\xe9M@'
p38
tp39
Rp40
sS'expName'
p41
g12
sVsession
p42
V001
p43
sVparticipant
p44
g0
(cfuture.types.newstr
newstr
p45
c__builtin__
unicode
p46
V006
p47
tp48
Rp49
ssS'loopsUnfinished'
p50
(lp51
sS'saveWideText'
p52
I00
sS'thisEntry'
p53
(dp54
sS'version'
p55
S''
p56
sS'_paramNamesSoFar'
p57
(lp58
S'Task_Instructions'
p59
aS'Block_type'
p60
aS'Trial_example'
p61
aS'TrialNumber'
p62
asS'entries'
p63
(lp64
(dp65
S'trials.thisIndex'
p66
g31
(g32
(S'i4'
p67
I0
I1
tp68
Rp69
(I3
S'<'
p70
NNNI-1
I-1
I0
tp71
bS'\x00\x00\x00\x00'
p72
tp73
Rp74
sg20
Nsg16
S'2'
p75
sg15
S'Y'
p76
sg59
VIn the upcoming task, you will be presented with a series of numbers and letters and will be asked to respond only to the numbers. Please place your left index finger on the letter "Z" and your right index finger on the "/" symbol on the same keyboard row. Press "Z" to then view an example of how the trials in this stage of the experiment will proceed.
p77
sg42
g43
sg28
g29
sg60
VIgnore_T1
p78
sS'Block.thisIndex'
p79
g31
(g69
S'\x00\x00\x00\x00'
p80
tp81
Rp82
sg19
F0.8520919184629747
sg17
S'slash'
p83
sg21
I0
sS'Block.thisTrialN'
p84
I0
sS'Block.thisRepN'
p85
I0
sS'trials.thisRepN'
p86
I0
sg44
g49
sS'Block.thisN'
p87
I0
sg30
g40
sS'trials.thisN'
p88
I0
sg61
Vexample1.jpg
p89
sg41
g12
sS'trials.thisTrialN'
p90
I0
sg18
I0
sg62
g31
(g32
(S'i8'
p91
I0
I1
tp92
Rp93
(I3
S'<'
p94
NNNI-1
I-1
I0
tp95
bS'P\x00\x00\x00\x00\x00\x00\x00'
p96
tp97
Rp98
sa(dp99
S'trials.thisIndex'
p100
g31
(g69
S'\x00\x00\x00\x00'
p101
tp102
Rp103
sg20
Nsg16
g75
sg15
g76
sg59
g77
sg42
g43
sg28
g29
sg60
g78
sS'Block.thisIndex'
p104
g82
sg19
F0.6354954107282538
sg17
S'slash'
p105
sg21
I0
sS'Block.thisTrialN'
p106
I0
sS'Block.thisRepN'
p107
I0
sS'trials.thisRepN'
p108
I1
sg44
g49
sS'Block.thisN'
p109
I0
sg30
g40
sS'trials.thisN'
p110
I1
sg61
g89
sg41
g12
sS'trials.thisTrialN'
p111
I0
sg18
I0
sg62
g98
sa(dp112
S'trials.thisIndex'
p113
g31
(g69
S'\x00\x00\x00\x00'
p114
tp115
Rp116
sg20
Nsg16
g75
sg15
S'#'
p117
sg59
g77
sg42
g43
sg28
g29
sg60
g78
sS'Block.thisIndex'
p118
g82
sg19
F0.43474480458644393
sg17
S'slash'
p119
sg21
I1
sS'Block.thisTrialN'
p120
I0
sS'Block.thisRepN'
p121
I0
sS'trials.thisRepN'
p122
I2
sg44
g49
sS'Block.thisN'
p123
I0
sg30
g40
sS'trials.thisN'
p124
I2
sg61
g89
sg41
g12
sS'trials.thisTrialN'
p125
I0
sg18
I0
sg62
g98
sa(dp126
S'trials.thisIndex'
p127
g31
(g69
S'\x00\x00\x00\x00'
p128
tp129
Rp130
sg20
Nsg16
S'1'
p131
sg15
g117
sg59
g77
sg42
g43
sg28
g29
sg60
g78
sS'Block.thisIndex'
p132
g82
sg19
F0.5863927799928206
sg17
S'z'
p133
sg21
I1
sS'Block.thisTrialN'
p134
I0
sS'Block.thisRepN'
p135
I0
sS'trials.thisRepN'
p136
I3
sg44
g49
sS'Block.thisN'
p137
I0
sg30
g40
sS'trials.thisN'
p138
I3
sg61
g89
sg41
g12
sS'trials.thisTrialN'
p139
I0
sg18
I0
sg62
g98
sa(dp140
S'trials.thisIndex'
p141
g31
(g69
S'\x00\x00\x00\x00'
p142
tp143
Rp144
sg20
Nsg16
g75
sg15
S'X'
p145
sg59
g77
sg42
g43
sg28
g29
sg60
g78
sS'Block.thisIndex'
p146
g82
sg19
F0.3000659305125737
sg17
S'slash'
p147
sg21
I0
sS'Block.thisTrialN'
p148
I0
sS'Block.thisRepN'
p149
I0
sS'trials.thisRepN'
p150
I4
sg44
g49
sS'Block.thisN'
p151
I0
sg30
g40
sS'trials.thisN'
p152
I4
sg61
g89
sg41
g12
sS'trials.thisTrialN'
p153
I0
sg18
I0
sg62
g98
sa(dp154
S'trials.thisIndex'
p155
g31
(g69
S'\x00\x00\x00\x00'
p156
tp157
Rp158
sg20
Nsg16
g75
sg15
g145
sg59
g77
sg42
g43
sg28
g29
sg60
g78
sS'Block.thisIndex'
p159
g82
sg19
F0.26789545375140733
sg17
S'z'
p160
sg21
I0
sS'Block.thisTrialN'
p161
I0
sS'Block.thisRepN'
p162
I0
sS'trials.thisRepN'
p163
I5
sg44
g49
sS'Block.thisN'
p164
I0
sg30
g40
sS'trials.thisN'
p165
I5
sg61
g89
sg41
g12
sS'trials.thisTrialN'
p166
I0
sg18
I0
sg62
g98
sa(dp167
S'trials.thisIndex'
p168
g31
(g69
S'\x00\x00\x00\x00'
p169
tp170
Rp171
sg20
Nsg16
g131
sg15
g145
sg59
g77
sg42
g43
sg28
g29
sg60
g78
sS'Block.thisIndex'
p172
g82
sg19
F0.4517508532790089
sg17
S'z'
p173
sg21
I0
sS'Block.thisTrialN'
p174
I0
sS'Block.thisRepN'
p175
I0
sS'trials.thisRepN'
p176
I6
sg44
g49
sS'Block.thisN'
p177
I0
sg30
g40
sS'trials.thisN'
p178
I6
sg61
g89
sg41
g12
sS'trials.thisTrialN'
p179
I0
sg18
I0
sg62
g98
sa(dp180
S'trials.thisIndex'
p181
g31
(g69
S'\x00\x00\x00\x00'
p182
tp183
Rp184
sg20
Nsg16
g75
sg15
g145
sg59
g77
sg42
g43
sg28
g29
sg60
g78
sS'Block.thisIndex'
p185
g82
sg19
F0.452438484699087
sg17
S'slash'
p186
sg21
I0
sS'Block.thisTrialN'
p187
I0
sS'Block.thisRepN'
p188
I0
sS'trials.thisRepN'
p189
I7
sg44
g49
sS'Block.thisN'
p190
I0
sg30
g40
sS'trials.thisN'
p191
I7
sg61
g89
sg41
g12
sS'trials.thisTrialN'
p192
I0
sg18
I0
sg62
g98
sa(dp193
S'trials.thisIndex'
p194
g31
(g69
S'\x00\x00\x00\x00'
p195
tp196
Rp197
sg20
Nsg16
g75
sg15
g117
sg59
g77
sg42
g43
sg28
g29
sg60
g78
sS'Block.thisIndex'
p198
g82
sg19
F0.4183122610229475
sg17
S'slash'
p199
sg21
I1
sS'Block.thisTrialN'
p200
I0
sS'Block.thisRepN'
p201
I0
sS'trials.thisRepN'
p202
I8
sg44
g49
sS'Block.thisN'
p203
I0
sg30
g40
sS'trials.thisN'
p204
I8
sg61
g89
sg41
g12
sS'trials.thisTrialN'
p205
I0
sg18
I0
sg62
g98
sa(dp206
S'trials.thisIndex'
p207
g31
(g69
S'\x00\x00\x00\x00'
p208
tp209
Rp210
sg20
Nsg16
g75
sg15
g117
sg59
g77
sg42
g43
sg28
g29
sg60
g78
sS'Block.thisIndex'
p211
g82
sg19
F0.3004612672611984
sg17
S'slash'
p212
sg21
I1
sS'Block.thisTrialN'
p213
I0
sS'Block.thisRepN'
p214
I0
sS'trials.thisRepN'
p215
I9
sg44
g49
sS'Block.thisN'
p216
I0
sg30
g40
sS'trials.thisN'
p217
I9
sg61
g89
sg41
g12
sS'trials.thisTrialN'
p218
I0
sg18
I0
sg62
g98
sa(dp219
S'trials.thisIndex'
p220
g31
(g69
S'\x00\x00\x00\x00'
p221
tp222
Rp223
sg20
Nsg16
g131
sg15
g76
sg59
g77
sg42
g43
sg28
g29
sg60
g78
sS'Block.thisIndex'
p224
g82
sg19
F0.317165168657084
sg17
S'slash'
p225
sg21
I0
sS'Block.thisTrialN'
p226
I0
sS'Block.thisRepN'
p227
I0
sS'trials.thisRepN'
p228
I10
sg44
g49
sS'Block.thisN'
p229
I0
sg30
g40
sS'trials.thisN'
p230
I10
sg61
g89
sg41
g12
sS'trials.thisTrialN'
p231
I0
sg18
I0
sg62
g98
sa(dp232
S'trials.thisIndex'
p233
g31
(g69
S'\x00\x00\x00\x00'
p234
tp235
Rp236
sg20
Nsg16
g75
sg15
g145
sg59
g77
sg42
g43
sg28
g29
sg60
g78
sS'Block.thisIndex'
p237
g82
sg19
F0.43472633090459567
sg17
S'slash'
p238
sg21
I0
sS'Block.thisTrialN'
p239
I0
sS'Block.thisRepN'
p240
I0
sS'trials.thisRepN'
p241
I11
sg44
g49
sS'Block.thisN'
p242
I0
sg30
g40
sS'trials.thisN'
p243
I11
sg61
g89
sg41
g12
sS'trials.thisTrialN'
p244
I0
sg18
I0
sg62
g98
sa(dp245
S'trials.thisIndex'
p246
g31
(g69
S'\x00\x00\x00\x00'
p247
tp248
Rp249
sg20
Nsg16
g75
sg15
g76
sg59
g77
sg42
g43
sg28
g29
sg60
g78
sS'Block.thisIndex'
p250
g82
sg19
F0.5180959958088351
sg17
S'slash'
p251
sg21
I0
sS'Block.thisTrialN'
p252
I0
sS'Block.thisRepN'
p253
I0
sS'trials.thisRepN'
p254
I12
sg44
g49
sS'Block.thisN'
p255
I0
sg30
g40
sS'trials.thisN'
p256
I12
sg61
g89
sg41
g12
sS'trials.thisTrialN'
p257
I0
sg18
I0
sg62
g98
sa(dp258
S'trials.thisIndex'
p259
g31
(g69
S'\x00\x00\x00\x00'
p260
tp261
Rp262
sg20
Nsg16
g75
sg15
g76
sg59
g77
sg42
g43
sg28
g29
sg60
g78
sS'Block.thisIndex'
p263
g82
sg19
F0.45180175853056426
sg17
S'slash'
p264
sg21
I0
sS'Block.thisTrialN'
p265
I0
sS'Block.thisRepN'
p266
I0
sS'trials.thisRepN'
p267
I13
sg44
g49
sS'Block.thisN'
p268
I0
sg30
g40
sS'trials.thisN'
p269
I13
sg61
g89
sg41
g12
sS'trials.thisTrialN'
p270
I0
sg18
I0
sg62
g98
sa(dp271
S'trials.thisIndex'
p272
g31
(g69
S'\x00\x00\x00\x00'
p273
tp274
Rp275
sg20
Nsg16
g131
sg15
g117
sg59
g77
sg42
g43
sg28
g29
sg60
g78
sS'Block.thisIndex'
p276
g82
sg19
F0.45117981130533735
sg17
S'z'
p277
sg21
I1
sS'Block.thisTrialN'
p278
I0
sS'Block.thisRepN'
p279
I0
sS'trials.thisRepN'
p280
I14
sg44
g49
sS'Block.thisN'
p281
I0
sg30
g40
sS'trials.thisN'
p282
I14
sg61
g89
sg41
g12
sS'trials.thisTrialN'
p283
I0
sg18
I0
sg62
g98
sa(dp284
S'trials.thisIndex'
p285
g31
(g69
S'\x00\x00\x00\x00'
p286
tp287
Rp288
sg20
Nsg16
g75
sg15
g117
sg59
g77
sg42
g43
sg28
g29
sg60
g78
sS'Block.thisIndex'
p289
g82
sg19
F0.4345571941030357
sg17
S'slash'
p290
sg21
I1
sS'Block.thisTrialN'
p291
I0
sS'Block.thisRepN'
p292
I0
sS'trials.thisRepN'
p293
I15
sg44
g49
sS'Block.thisN'
p294
I0
sg30
g40
sS'trials.thisN'
p295
I15
sg61
g89
sg41
g12
sS'trials.thisTrialN'
p296
I0
sg18
I0
sg62
g98
sa(dp297
S'trials.thisIndex'
p298
g31
(g69
S'\x00\x00\x00\x00'
p299
tp300
Rp301
sg20
Nsg16
g75
sg15
g145
sg59
g77
sg42
g43
sg28
g29
sg60
g78
sS'Block.thisIndex'
p302
g82
sg19
F0.40054509671608685
sg17
S'slash'
p303
sg21
I0
sS'Block.thisTrialN'
p304
I0
sS'Block.thisRepN'
p305
I0
sS'trials.thisRepN'
p306
I16
sg44
g49
sS'Block.thisN'
p307
I0
sg30
g40
sS'trials.thisN'
p308
I16
sg61
g89
sg41
g12
sS'trials.thisTrialN'
p309
I0
sg18
I0
sg62
g98
sa(dp310
S'trials.thisIndex'
p311
g31
(g69
S'\x00\x00\x00\x00'
p312
tp313
Rp314
sg20
Nsg16
g131
sg15
g145
sg59
g77
sg42
g43
sg28
g29
sg60
g78
sS'Block.thisIndex'
p315
g82
sg19
F0.41832334523132886
sg17
S'z'
p316
sg21
I0
sS'Block.thisTrialN'
p317
I0
sS'Block.thisRepN'
p318
I0
sS'trials.thisRepN'
p319
I17
sg44
g49
sS'Block.thisN'
p320
I0
sg30
g40
sS'trials.thisN'
p321
I17
sg61
g89
sg41
g12
sS'trials.thisTrialN'
p322
I0
sg18
I0
sg62
g98
sa(dp323
S'trials.thisIndex'
p324
g31
(g69
S'\x00\x00\x00\x00'
p325
tp326
Rp327
sg20
Nsg16
g75
sg15
g76
sg59
g77
sg42
g43
sg28
g29
sg60
g78
sS'Block.thisIndex'
p328
g82
sg19
F0.36822026209665637
sg17
S'slash'
p329
sg21
I0
sS'Block.thisTrialN'
p330
I0
sS'Block.thisRepN'
p331
I0
sS'trials.thisRepN'
p332
I18
sg44
g49
sS'Block.thisN'
p333
I0
sg30
g40
sS'trials.thisN'
p334
I18
sg61
g89
sg41
g12
sS'trials.thisTrialN'
p335
I0
sg18
I0
sg62
g98
sa(dp336
S'trials.thisIndex'
p337
g31
(g69
S'\x00\x00\x00\x00'
p338
tp339
Rp340
sg20
Nsg16
g131
sg15
g117
sg59
g77
sg42
g43
sg28
g29
sg60
g78
sS'Block.thisIndex'
p341
g82
sg19
F0.36827157787411124
sg17
S'z'
p342
sg21
I1
sS'Block.thisTrialN'
p343
I0
sS'Block.thisRepN'
p344
I0
sS'trials.thisRepN'
p345
I19
sg44
g49
sS'Block.thisN'
p346
I0
sg30
g40
sS'trials.thisN'
p347
I19
sg61
g89
sg41
g12
sS'trials.thisTrialN'
p348
I0
sg18
I0
sg62
g98
sa(dp349
S'trials.thisIndex'
p350
g31
(g69
S'\x00\x00\x00\x00'
p351
tp352
Rp353
sg20
Nsg16
g131
sg15
g76
sg59
g77
sg42
g43
sg28
g29
sg60
g78
sS'Block.thisIndex'
p354
g82
sg19
F0.3019572248103941
sg17
S'slash'
p355
sg21
I0
sS'Block.thisTrialN'
p356
I0
sS'Block.thisRepN'
p357
I0
sS'trials.thisRepN'
p358
I20
sg44
g49
sS'Block.thisN'
p359
I0
sg30
g40
sS'trials.thisN'
p360
I20
sg61
g89
sg41
g12
sS'trials.thisTrialN'
p361
I0
sg18
I0
sg62
g98
sa(dp362
S'trials.thisIndex'
p363
g31
(g69
S'\x00\x00\x00\x00'
p364
tp365
Rp366
sg20
Nsg16
g131
sg15
g145
sg59
g77
sg42
g43
sg28
g29
sg60
g78
sS'Block.thisIndex'
p367
g82
sg19
F0.5019758627004194
sg17
S'z'
p368
sg21
I0
sS'Block.thisTrialN'
p369
I0
sS'Block.thisRepN'
p370
I0
sS'trials.thisRepN'
p371
I21
sg44
g49
sS'Block.thisN'
p372
I0
sg30
g40
sS'trials.thisN'
p373
I21
sg61
g89
sg41
g12
sS'trials.thisTrialN'
p374
I0
sg18
I0
sg62
g98
sa(dp375
S'trials.thisIndex'
p376
g31
(g69
S'\x00\x00\x00\x00'
p377
tp378
Rp379
sg20
Nsg16
g75
sg15
g76
sg59
g77
sg42
g43
sg28
g29
sg60
g78
sS'Block.thisIndex'
p380
g82
sg19
F0.5509623145135265
sg17
S'slash'
p381
sg21
I0
sS'Block.thisTrialN'
p382
I0
sS'Block.thisRepN'
p383
I0
sS'trials.thisRepN'
p384
I22
sg44
g49
sS'Block.thisN'
p385
I0
sg30
g40
sS'trials.thisN'
p386
I22
sg61
g89
sg41
g12
sS'trials.thisTrialN'
p387
I0
sg18
I0
sg62
g98
sa(dp388
S'trials.thisIndex'
p389
g31
(g69
S'\x00\x00\x00\x00'
p390
tp391
Rp392
sg20
Nsg16
g75
sg15
g117
sg59
g77
sg42
g43
sg28
g29
sg60
g78
sS'Block.thisIndex'
p393
g82
sg19
F0.43517175185479573
sg17
S'slash'
p394
sg21
I1
sS'Block.thisTrialN'
p395
I0
sS'Block.thisRepN'
p396
I0
sS'trials.thisRepN'
p397
I23
sg44
g49
sS'Block.thisN'
p398
I0
sg30
g40
sS'trials.thisN'
p399
I23
sg61
g89
sg41
g12
sS'trials.thisTrialN'
p400
I0
sg18
I0
sg62
g98
sa(dp401
S'trials.thisIndex'
p402
g31
(g69
S'\x00\x00\x00\x00'
p403
tp404
Rp405
sg20
Nsg16
g75
sg15
g76
sg59
g77
sg42
g43
sg28
g29
sg60
g78
sS'Block.thisIndex'
p406
g82
sg19
F0.4015902964747511
sg17
S'slash'
p407
sg21
I0
sS'Block.thisTrialN'
p408
I0
sS'Block.thisRepN'
p409
I0
sS'trials.thisRepN'
p410
I24
sg44
g49
sS'Block.thisN'
p411
I0
sg30
g40
sS'trials.thisN'
p412
I24
sg61
g89
sg41
g12
sS'trials.thisTrialN'
p413
I0
sg18
I0
sg62
g98
sa(dp414
S'trials.thisIndex'
p415
g31
(g69
S'\x00\x00\x00\x00'
p416
tp417
Rp418
sg20
Nsg16
g75
sg15
g76
sg59
g77
sg42
g43
sg28
g29
sg60
g78
sS'Block.thisIndex'
p419
g82
sg19
F0.45212976898073975
sg17
S'slash'
p420
sg21
I0
sS'Block.thisTrialN'
p421
I0
sS'Block.thisRepN'
p422
I0
sS'trials.thisRepN'
p423
I25
sg44
g49
sS'Block.thisN'
p424
I0
sg30
g40
sS'trials.thisN'
p425
I25
sg61
g89
sg41
g12
sS'trials.thisTrialN'
p426
I0
sg18
I0
sg62
g98
sa(dp427
S'trials.thisIndex'
p428
g31
(g69
S'\x00\x00\x00\x00'
p429
tp430
Rp431
sg20
Nsg16
g75
sg15
g117
sg59
g77
sg42
g43
sg28
g29
sg60
g78
sS'Block.thisIndex'
p432
g82
sg19
F0.4518801690392138
sg17
S'slash'
p433
sg21
I1
sS'Block.thisTrialN'
p434
I0
sS'Block.thisRepN'
p435
I0
sS'trials.thisRepN'
p436
I26
sg44
g49
sS'Block.thisN'
p437
I0
sg30
g40
sS'trials.thisN'
p438
I26
sg61
g89
sg41
g12
sS'trials.thisTrialN'
p439
I0
sg18
I0
sg62
g98
sa(dp440
S'trials.thisIndex'
p441
g31
(g69
S'\x00\x00\x00\x00'
p442
tp443
Rp444
sg20
Nsg16
g131
sg15
g76
sg59
g77
sg42
g43
sg28
g29
sg60
g78
sS'Block.thisIndex'
p445
g82
sg19
F0.5177536169412633
sg17
S'z'
p446
sg21
I0
sS'Block.thisTrialN'
p447
I0
sS'Block.thisRepN'
p448
I0
sS'trials.thisRepN'
p449
I27
sg44
g49
sS'Block.thisN'
p450
I0
sg30
g40
sS'trials.thisN'
p451
I27
sg61
g89
sg41
g12
sS'trials.thisTrialN'
p452
I0
sg18
I0
sg62
g98
sa(dp453
S'trials.thisIndex'
p454
g31
(g69
S'\x00\x00\x00\x00'
p455
tp456
Rp457
sg20
Nsg16
g75
sg15
g117
sg59
g77
sg42
g43
sg28
g29
sg60
g78
sS'Block.thisIndex'
p458
g82
sg19
F0.75264399412481
sg17
S'slash'
p459
sg21
I1
sS'Block.thisTrialN'
p460
I0
sS'Block.thisRepN'
p461
I0
sS'trials.thisRepN'
p462
I28
sg44
g49
sS'Block.thisN'
p463
I0
sg30
g40
sS'trials.thisN'
p464
I28
sg61
g89
sg41
g12
sS'trials.thisTrialN'
p465
I0
sg18
I0
sg62
g98
sa(dp466
S'trials.thisIndex'
p467
g31
(g69
S'\x00\x00\x00\x00'
p468
tp469
Rp470
sg20
Nsg16
g75
sg15
g117
sg59
g77
sg42
g43
sg28
g29
sg60
g78
sS'Block.thisIndex'
p471
g82
sg19
F0.5024303152276843
sg17
S'slash'
p472
sg21
I1
sS'Block.thisTrialN'
p473
I0
sS'Block.thisRepN'
p474
I0
sS'trials.thisRepN'
p475
I29
sg44
g49
sS'Block.thisN'
p476
I0
sg30
g40
sS'trials.thisN'
p477
I29
sg61
g89
sg41
g12
sS'trials.thisTrialN'
p478
I0
sg18
I0
sg62
g98
sa(dp479
S'trials.thisIndex'
p480
g31
(g69
S'\x00\x00\x00\x00'
p481
tp482
Rp483
sg20
Nsg16
g75
sg15
g76
sg59
g77
sg42
g43
sg28
g29
sg60
g78
sS'Block.thisIndex'
p484
g82
sg19
F1.2874902807925537
sg17
S'slash'
p485
sg21
I0
sS'Block.thisTrialN'
p486
I0
sS'Block.thisRepN'
p487
I0
sS'trials.thisRepN'
p488
I30
sg44
g49
sS'Block.thisN'
p489
I0
sg30
g40
sS'trials.thisN'
p490
I30
sg61
g89
sg41
g12
sS'trials.thisTrialN'
p491
I0
sg18
I0
sg62
g98
sa(dp492
S'trials.thisIndex'
p493
g31
(g69
S'\x00\x00\x00\x00'
p494
tp495
Rp496
sg20
Nsg16
g131
sg15
g145
sg59
g77
sg42
g43
sg28
g29
sg60
g78
sS'Block.thisIndex'
p497
g82
sg19
F0.5694667839143221
sg17
S'z'
p498
sg21
I0
sS'Block.thisTrialN'
p499
I0
sS'Block.thisRepN'
p500
I0
sS'trials.thisRepN'
p501
I31
sg44
g49
sS'Block.thisN'
p502
I0
sg30
g40
sS'trials.thisN'
p503
I31
sg61
g89
sg41
g12
sS'trials.thisTrialN'
p504
I0
sg18
I0
sg62
g98
sa(dp505
S'trials.thisIndex'
p506
g31
(g69
S'\x00\x00\x00\x00'
p507
tp508
Rp509
sg20
Nsg16
g75
sg15
g117
sg59
g77
sg42
g43
sg28
g29
sg60
g78
sS'Block.thisIndex'
p510
g82
sg19
F0.4684777441434562
sg17
S'slash'
p511
sg21
I1
sS'Block.thisTrialN'
p512
I0
sS'Block.thisRepN'
p513
I0
sS'trials.thisRepN'
p514
I32
sg44
g49
sS'Block.thisN'
p515
I0
sg30
g40
sS'trials.thisN'
p516
I32
sg61
g89
sg41
g12
sS'trials.thisTrialN'
p517
I0
sg18
I0
sg62
g98
sa(dp518
S'trials.thisIndex'
p519
g31
(g69
S'\x00\x00\x00\x00'
p520
tp521
Rp522
sg20
Nsg16
g131
sg15
g117
sg59
g77
sg42
g43
sg28
g29
sg60
g78
sS'Block.thisIndex'
p523
g82
sg19
F0.4681686178973905
sg17
S'z'
p524
sg21
I1
sS'Block.thisTrialN'
p525
I0
sS'Block.thisRepN'
p526
I0
sS'trials.thisRepN'
p527
I33
sg44
g49
sS'Block.thisN'
p528
I0
sg30
g40
sS'trials.thisN'
p529
I33
sg61
g89
sg41
g12
sS'trials.thisTrialN'
p530
I0
sg18
I0
sg62
g98
sa(dp531
S'trials.thisIndex'
p532
g31
(g69
S'\x00\x00\x00\x00'
p533
tp534
Rp535
sg20
Nsg16
g131
sg15
g117
sg59
g77
sg42
g43
sg28
g29
sg60
g78
sS'Block.thisIndex'
p536
g82
sg19
F0.6350594318810181
sg17
S'z'
p537
sg21
I1
sS'Block.thisTrialN'
p538
I0
sS'Block.thisRepN'
p539
I0
sS'trials.thisRepN'
p540
I34
sg44
g49
sS'Block.thisN'
p541
I0
sg30
g40
sS'trials.thisN'
p542
I34
sg61
g89
sg41
g12
sS'trials.thisTrialN'
p543
I0
sg18
I0
sg62
g98
sa(dp544
S'trials.thisIndex'
p545
g31
(g69
S'\x00\x00\x00\x00'
p546
tp547
Rp548
sg20
Nsg16
g131
sg15
g76
sg59
g77
sg42
g43
sg28
g29
sg60
g78
sS'Block.thisIndex'
p549
g82
sg19
F0.5019360416572454
sg17
S'z'
p550
sg21
I0
sS'Block.thisTrialN'
p551
I0
sS'Block.thisRepN'
p552
I0
sS'trials.thisRepN'
p553
I35
sg44
g49
sS'Block.thisN'
p554
I0
sg30
g40
sS'trials.thisN'
p555
I35
sg61
g89
sg41
g12
sS'trials.thisTrialN'
p556
I0
sg18
I0
sg62
g98
sa(dp557
S'trials.thisIndex'
p558
g31
(g69
S'\x00\x00\x00\x00'
p559
tp560
Rp561
sg20
Nsg16
g131
sg15
g145
sg59
g77
sg42
g43
sg28
g29
sg60
g78
sS'Block.thisIndex'
p562
g82
sg19
F0.45099794818997907
sg17
S'z'
p563
sg21
I0
sS'Block.thisTrialN'
p564
I0
sS'Block.thisRepN'
p565
I0
sS'trials.thisRepN'
p566
I36
sg44
g49
sS'Block.thisN'
p567
I0
sg30
g40
sS'trials.thisN'
p568
I36
sg61
g89
sg41
g12
sS'trials.thisTrialN'
p569
I0
sg18
I0
sg62
g98
sa(dp570
S'trials.thisIndex'
p571
g31
(g69
S'\x00\x00\x00\x00'
p572
tp573
Rp574
sg20
Nsg16
g131
sg15
g117
sg59
g77
sg42
g43
sg28
g29
sg60
g78
sS'Block.thisIndex'
p575
g82
sg19
F0.4343523415191157
sg17
S'z'
p576
sg21
I1
sS'Block.thisTrialN'
p577
I0
sS'Block.thisRepN'
p578
I0
sS'trials.thisRepN'
p579
I37
sg44
g49
sS'Block.thisN'
p580
I0
sg30
g40
sS'trials.thisN'
p581
I37
sg61
g89
sg41
g12
sS'trials.thisTrialN'
p582
I0
sg18
I0
sg62
g98
sa(dp583
S'trials.thisIndex'
p584
g31
(g69
S'\x00\x00\x00\x00'
p585
tp586
Rp587
sg20
Nsg16
g75
sg15
g117
sg59
g77
sg42
g43
sg28
g29
sg60
g78
sS'Block.thisIndex'
p588
g82
sg19
F0.485457929682525
sg17
S'slash'
p589
sg21
I1
sS'Block.thisTrialN'
p590
I0
sS'Block.thisRepN'
p591
I0
sS'trials.thisRepN'
p592
I38
sg44
g49
sS'Block.thisN'
p593
I0
sg30
g40
sS'trials.thisN'
p594
I38
sg61
g89
sg41
g12
sS'trials.thisTrialN'
p595
I0
sg18
I0
sg62
g98
sa(dp596
S'trials.thisIndex'
p597
g31
(g69
S'\x00\x00\x00\x00'
p598
tp599
Rp600
sg20
Nsg16
g131
sg15
g145
sg59
g77
sg42
g43
sg28
g29
sg60
g78
sS'Block.thisIndex'
p601
g82
sg19
F0.45260392676573247
sg17
S'z'
p602
sg21
I0
sS'Block.thisTrialN'
p603
I0
sS'Block.thisRepN'
p604
I0
sS'trials.thisRepN'
p605
I39
sg44
g49
sS'Block.thisN'
p606
I0
sg30
g40
sS'trials.thisN'
p607
I39
sg61
g89
sg41
g12
sS'trials.thisTrialN'
p608
I0
sg18
I0
sg62
g98
sa(dp609
S'trials.thisIndex'
p610
g31
(g69
S'\x00\x00\x00\x00'
p611
tp612
Rp613
sg20
Nsg16
g131
sg15
g117
sg59
g77
sg42
g43
sg28
g29
sg60
g78
sS'Block.thisIndex'
p614
g82
sg19
F0.46957467020365584
sg17
S'z'
p615
sg21
I1
sS'Block.thisTrialN'
p616
I0
sS'Block.thisRepN'
p617
I0
sS'trials.thisRepN'
p618
I40
sg44
g49
sS'Block.thisN'
p619
I0
sg30
g40
sS'trials.thisN'
p620
I40
sg61
g89
sg41
g12
sS'trials.thisTrialN'
p621
I0
sg18
I0
sg62
g98
sa(dp622
S'trials.thisIndex'
p623
g31
(g69
S'\x00\x00\x00\x00'
p624
tp625
Rp626
sg20
Nsg16
g131
sg15
g76
sg59
g77
sg42
g43
sg28
g29
sg60
g78
sS'Block.thisIndex'
p627
g82
sg19
F0.5191198482043546
sg17
S'z'
p628
sg21
I0
sS'Block.thisTrialN'
p629
I0
sS'Block.thisRepN'
p630
I0
sS'trials.thisRepN'
p631
I41
sg44
g49
sS'Block.thisN'
p632
I0
sg30
g40
sS'trials.thisN'
p633
I41
sg61
g89
sg41
g12
sS'trials.thisTrialN'
p634
I0
sg18
I0
sg62
g98
sa(dp635
S'trials.thisIndex'
p636
g31
(g69
S'\x00\x00\x00\x00'
p637
tp638
Rp639
sg20
Nsg16
g131
sg15
g76
sg59
g77
sg42
g43
sg28
g29
sg60
g78
sS'Block.thisIndex'
p640
g82
sg19
F0.5016507259351783
sg17
S'z'
p641
sg21
I0
sS'Block.thisTrialN'
p642
I0
sS'Block.thisRepN'
p643
I0
sS'trials.thisRepN'
p644
I42
sg44
g49
sS'Block.thisN'
p645
I0
sg30
g40
sS'trials.thisN'
p646
I42
sg61
g89
sg41
g12
sS'trials.thisTrialN'
p647
I0
sg18
I0
sg62
g98
sa(dp648
S'trials.thisIndex'
p649
g31
(g69
S'\x00\x00\x00\x00'
p650
tp651
Rp652
sg20
Nsg16
g131
sg15
g117
sg59
g77
sg42
g43
sg28
g29
sg60
g78
sS'Block.thisIndex'
p653
g82
sg19
F0.41863698726228904
sg17
S'z'
p654
sg21
I1
sS'Block.thisTrialN'
p655
I0
sS'Block.thisRepN'
p656
I0
sS'trials.thisRepN'
p657
I43
sg44
g49
sS'Block.thisN'
p658
I0
sg30
g40
sS'trials.thisN'
p659
I43
sg61
g89
sg41
g12
sS'trials.thisTrialN'
p660
I0
sg18
I0
sg62
g98
sa(dp661
S'trials.thisIndex'
p662
g31
(g69
S'\x00\x00\x00\x00'
p663
tp664
Rp665
sg20
Nsg16
g131
sg15
g76
sg59
g77
sg42
g43
sg28
g29
sg60
g78
sS'Block.thisIndex'
p666
g82
sg19
F0.4525661583538749
sg17
S'z'
p667
sg21
I0
sS'Block.thisTrialN'
p668
I0
sS'Block.thisRepN'
p669
I0
sS'trials.thisRepN'
p670
I44
sg44
g49
sS'Block.thisN'
p671
I0
sg30
g40
sS'trials.thisN'
p672
I44
sg61
g89
sg41
g12
sS'trials.thisTrialN'
p673
I0
sg18
I0
sg62
g98
sa(dp674
S'trials.thisIndex'
p675
g31
(g69
S'\x00\x00\x00\x00'
p676
tp677
Rp678
sg20
Nsg16
g75
sg15
g76
sg59
g77
sg42
g43
sg28
g29
sg60
g78
sS'Block.thisIndex'
p679
g82
sg19
F0.55272511410476
sg17
S'slash'
p680
sg21
I0
sS'Block.thisTrialN'
p681
I0
sS'Block.thisRepN'
p682
I0
sS'trials.thisRepN'
p683
I45
sg44
g49
sS'Block.thisN'
p684
I0
sg30
g40
sS'trials.thisN'
p685
I45
sg61
g89
sg41
g12
sS'trials.thisTrialN'
p686
I0
sg18
I0
sg62
g98
sa(dp687
S'trials.thisIndex'
p688
g31
(g69
S'\x00\x00\x00\x00'
p689
tp690
Rp691
sg20
Nsg16
g75
sg15
g117
sg59
g77
sg42
g43
sg28
g29
sg60
g78
sS'Block.thisIndex'
p692
g82
sg19
F0.48442956150029204
sg17
S'slash'
p693
sg21
I1
sS'Block.thisTrialN'
p694
I0
sS'Block.thisRepN'
p695
I0
sS'trials.thisRepN'
p696
I46
sg44
g49
sS'Block.thisN'
p697
I0
sg30
g40
sS'trials.thisN'
p698
I46
sg61
g89
sg41
g12
sS'trials.thisTrialN'
p699
I0
sg18
I0
sg62
g98
sa(dp700
S'trials.thisIndex'
p701
g31
(g69
S'\x00\x00\x00\x00'
p702
tp703
Rp704
sg20
Nsg16
g75
sg15
g76
sg59
g77
sg42
g43
sg28
g29
sg60
g78
sS'Block.thisIndex'
p705
g82
sg19
F0.5687980367001728
sg17
S'slash'
p706
sg21
I0
sS'Block.thisTrialN'
p707
I0
sS'Block.thisRepN'
p708
I0
sS'trials.thisRepN'
p709
I47
sg44
g49
sS'Block.thisN'
p710
I0
sg30
g40
sS'trials.thisN'
p711
I47
sg61
g89
sg41
g12
sS'trials.thisTrialN'
p712
I0
sg18
I0
sg62
g98
sa(dp713
S'trials.thisIndex'
p714
g31
(g69
S'\x00\x00\x00\x00'
p715
tp716
Rp717
sg20
Nsg16
g75
sg15
g117
sg59
g77
sg42
g43
sg28
g29
sg60
g78
sS'Block.thisIndex'
p718
g82
sg19
F0.4695545544182096
sg17
S'slash'
p719
sg21
I1
sS'Block.thisTrialN'
p720
I0
sS'Block.thisRepN'
p721
I0
sS'trials.thisRepN'
p722
I48
sg44
g49
sS'Block.thisN'
p723
I0
sg30
g40
sS'trials.thisN'
p724
I48
sg61
g89
sg41
g12
sS'trials.thisTrialN'
p725
I0
sg18
I0
sg62
g98
sa(dp726
S'trials.thisIndex'
p727
g31
(g69
S'\x00\x00\x00\x00'
p728
tp729
Rp730
sg20
Nsg16
g75
sg15
g145
sg59
g77
sg42
g43
sg28
g29
sg60
g78
sS'Block.thisIndex'
p731
g82
sg19
F0.5016232206762652
sg17
S'slash'
p732
sg21
I0
sS'Block.thisTrialN'
p733
I0
sS'Block.thisRepN'
p734
I0
sS'trials.thisRepN'
p735
I49
sg44
g49
sS'Block.thisN'
p736
I0
sg30
g40
sS'trials.thisN'
p737
I49
sg61
g89
sg41
g12
sS'trials.thisTrialN'
p738
I0
sg18
I0
sg62
g98
sa(dp739
S'trials.thisIndex'
p740
g31
(g69
S'\x00\x00\x00\x00'
p741
tp742
Rp743
sg20
Nsg16
g75
sg15
g76
sg59
g77
sg42
g43
sg28
g29
sg60
g78
sS'Block.thisIndex'
p744
g82
sg19
F0.48351285644821473
sg17
S'slash'
p745
sg21
I0
sS'Block.thisTrialN'
p746
I0
sS'Block.thisRepN'
p747
I0
sS'trials.thisRepN'
p748
I50
sg44
g49
sS'Block.thisN'
p749
I0
sg30
g40
sS'trials.thisN'
p750
I50
sg61
g89
sg41
g12
sS'trials.thisTrialN'
p751
I0
sg18
I0
sg62
g98
sa(dp752
S'trials.thisIndex'
p753
g31
(g69
S'\x00\x00\x00\x00'
p754
tp755
Rp756
sg20
Nsg16
g75
sg15
g76
sg59
g77
sg42
g43
sg28
g29
sg60
g78
sS'Block.thisIndex'
p757
g82
sg19
F0.4348876677104272
sg17
S'slash'
p758
sg21
I0
sS'Block.thisTrialN'
p759
I0
sS'Block.thisRepN'
p760
I0
sS'trials.thisRepN'
p761
I51
sg44
g49
sS'Block.thisN'
p762
I0
sg30
g40
sS'trials.thisN'
p763
I51
sg61
g89
sg41
g12
sS'trials.thisTrialN'
p764
I0
sg18
I0
sg62
g98
sa(dp765
S'trials.thisIndex'
p766
g31
(g69
S'\x00\x00\x00\x00'
p767
tp768
Rp769
sg20
Nsg16
g131
sg15
g76
sg59
g77
sg42
g43
sg28
g29
sg60
g78
sS'Block.thisIndex'
p770
g82
sg19
F0.46848225993198866
sg17
S'z'
p771
sg21
I0
sS'Block.thisTrialN'
p772
I0
sS'Block.thisRepN'
p773
I0
sS'trials.thisRepN'
p774
I52
sg44
g49
sS'Block.thisN'
p775
I0
sg30
g40
sS'trials.thisN'
p776
I52
sg61
g89
sg41
g12
sS'trials.thisTrialN'
p777
I0
sg18
I0
sg62
g98
sa(dp778
S'trials.thisIndex'
p779
g31
(g69
S'\x00\x00\x00\x00'
p780
tp781
Rp782
sg20
Nsg16
g131
sg15
g76
sg59
g77
sg42
g43
sg28
g29
sg60
g78
sS'Block.thisIndex'
p783
g82
sg19
F0.4517516743308079
sg17
S'z'
p784
sg21
I0
sS'Block.thisTrialN'
p785
I0
sS'Block.thisRepN'
p786
I0
sS'trials.thisRepN'
p787
I53
sg44
g49
sS'Block.thisN'
p788
I0
sg30
g40
sS'trials.thisN'
p789
I53
sg61
g89
sg41
g12
sS'trials.thisTrialN'
p790
I0
sg18
I0
sg62
g98
sa(dp791
S'trials.thisIndex'
p792
g31
(g69
S'\x00\x00\x00\x00'
p793
tp794
Rp795
sg20
Nsg16
g75
sg15
g145
sg59
g77
sg42
g43
sg28
g29
sg60
g78
sS'Block.thisIndex'
p796
g82
sg19
F0.4684646073019394
sg17
S'slash'
p797
sg21
I0
sS'Block.thisTrialN'
p798
I0
sS'Block.thisRepN'
p799
I0
sS'trials.thisRepN'
p800
I54
sg44
g49
sS'Block.thisN'
p801
I0
sg30
g40
sS'trials.thisN'
p802
I54
sg61
g89
sg41
g12
sS'trials.thisTrialN'
p803
I0
sg18
I0
sg62
g98
sa(dp804
S'trials.thisIndex'
p805
g31
(g69
S'\x00\x00\x00\x00'
p806
tp807
Rp808
sg20
Nsg16
g75
sg15
g145
sg59
g77
sg42
g43
sg28
g29
sg60
g78
sS'Block.thisIndex'
p809
g82
sg19
F0.4024996120533615
sg17
S'slash'
p810
sg21
I0
sS'Block.thisTrialN'
p811
I0
sS'Block.thisRepN'
p812
I0
sS'trials.thisRepN'
p813
I55
sg44
g49
sS'Block.thisN'
p814
I0
sg30
g40
sS'trials.thisN'
p815
I55
sg61
g89
sg41
g12
sS'trials.thisTrialN'
p816
I0
sg18
I0
sg62
g98
sa(dp817
S'trials.thisIndex'
p818
g31
(g69
S'\x00\x00\x00\x00'
p819
tp820
Rp821
sg20
Nsg16
g131
sg15
g76
sg59
g77
sg42
g43
sg28
g29
sg60
g78
sS'Block.thisIndex'
p822
g82
sg19
F0.5016162417305168
sg17
S'z'
p823
sg21
I0
sS'Block.thisTrialN'
p824
I0
sS'Block.thisRepN'
p825
I0
sS'trials.thisRepN'
p826
I56
sg44
g49
sS'Block.thisN'
p827
I0
sg30
g40
sS'trials.thisN'
p828
I56
sg61
g89
sg41
g12
sS'trials.thisTrialN'
p829
I0
sg18
I0
sg62
g98
sa(dp830
S'trials.thisIndex'
p831
g31
(g69
S'\x00\x00\x00\x00'
p832
tp833
Rp834
sg20
Nsg16
g131
sg15
g117
sg59
g77
sg42
g43
sg28
g29
sg60
g78
sS'Block.thisIndex'
p835
g82
sg19
F0.45095976925040304
sg17
S'z'
p836
sg21
I1
sS'Block.thisTrialN'
p837
I0
sS'Block.thisRepN'
p838
I0
sS'trials.thisRepN'
p839
I57
sg44
g49
sS'Block.thisN'
p840
I0
sg30
g40
sS'trials.thisN'
p841
I57
sg61
g89
sg41
g12
sS'trials.thisTrialN'
p842
I0
sg18
I0
sg62
g98
sa(dp843
S'trials.thisIndex'
p844
g31
(g69
S'\x00\x00\x00\x00'
p845
tp846
Rp847
sg20
Nsg16
g75
sg15
g76
sg59
g77
sg42
g43
sg28
g29
sg60
g78
sS'Block.thisIndex'
p848
g82
sg19
F0.46778067061859474
sg17
S'slash'
p849
sg21
I0
sS'Block.thisTrialN'
p850
I0
sS'Block.thisRepN'
p851
I0
sS'trials.thisRepN'
p852
I58
sg44
g49
sS'Block.thisN'
p853
I0
sg30
g40
sS'trials.thisN'
p854
I58
sg61
g89
sg41
g12
sS'trials.thisTrialN'
p855
I0
sg18
I0
sg62
g98
sa(dp856
S'trials.thisIndex'
p857
g31
(g69
S'\x00\x00\x00\x00'
p858
tp859
Rp860
sg20
Nsg16
g131
sg15
g76
sg59
g77
sg42
g43
sg28
g29
sg60
g78
sS'Block.thisIndex'
p861
g82
sg19
F0.6019209342921386
sg17
S'z'
p862
sg21
I0
sS'Block.thisTrialN'
p863
I0
sS'Block.thisRepN'
p864
I0
sS'trials.thisRepN'
p865
I59
sg44
g49
sS'Block.thisN'
p866
I0
sg30
g40
sS'trials.thisN'
p867
I59
sg61
g89
sg41
g12
sS'trials.thisTrialN'
p868
I0
sg18
I0
sg62
g98
sa(dp869
S'trials.thisIndex'
p870
g31
(g69
S'\x00\x00\x00\x00'
p871
tp872
Rp873
sg20
Nsg16
g131
sg15
g117
sg59
g77
sg42
g43
sg28
g29
sg60
g78
sS'Block.thisIndex'
p874
g82
sg19
F0.4844882667493948
sg17
S'z'
p875
sg21
I1
sS'Block.thisTrialN'
p876
I0
sS'Block.thisRepN'
p877
I0
sS'trials.thisRepN'
p878
I60
sg44
g49
sS'Block.thisN'
p879
I0
sg30
g40
sS'trials.thisN'
p880
I60
sg61
g89
sg41
g12
sS'trials.thisTrialN'
p881
I0
sg18
I0
sg62
g98
sa(dp882
S'trials.thisIndex'
p883
g31
(g69
S'\x00\x00\x00\x00'
p884
tp885
Rp886
sg20
Nsg16
g131
sg15
g145
sg59
g77
sg42
g43
sg28
g29
sg60
g78
sS'Block.thisIndex'
p887
g82
sg19
F0.40087310716626234
sg17
S'z'
p888
sg21
I0
sS'Block.thisTrialN'
p889
I0
sS'Block.thisRepN'
p890
I0
sS'trials.thisRepN'
p891
I61
sg44
g49
sS'Block.thisN'
p892
I0
sg30
g40
sS'trials.thisN'
p893
I61
sg61
g89
sg41
g12
sS'trials.thisTrialN'
p894
I0
sg18
I0
sg62
g98
sa(dp895
S'trials.thisIndex'
p896
g31
(g69
S'\x00\x00\x00\x00'
p897
tp898
Rp899
sg20
Nsg16
g131
sg15
g117
sg59
g77
sg42
g43
sg28
g29
sg60
g78
sS'Block.thisIndex'
p900
g82
sg19
F0.43395084687472263
sg17
S'z'
p901
sg21
I1
sS'Block.thisTrialN'
p902
I0
sS'Block.thisRepN'
p903
I0
sS'trials.thisRepN'
p904
I62
sg44
g49
sS'Block.thisN'
p905
I0
sg30
g40
sS'trials.thisN'
p906
I62
sg61
g89
sg41
g12
sS'trials.thisTrialN'
p907
I0
sg18
I0
sg62
g98
sa(dp908
S'trials.thisIndex'
p909
g31
(g69
S'\x00\x00\x00\x00'
p910
tp911
Rp912
sg20
Nsg16
g131
sg15
g117
sg59
g77
sg42
g43
sg28
g29
sg60
g78
sS'Block.thisIndex'
p913
g82
sg19
F0.5354206128486112
sg17
S'z'
p914
sg21
I1
sS'Block.thisTrialN'
p915
I0
sS'Block.thisRepN'
p916
I0
sS'trials.thisRepN'
p917
I63
sg44
g49
sS'Block.thisN'
p918
I0
sg30
g40
sS'trials.thisN'
p919
I63
sg61
g89
sg41
g12
sS'trials.thisTrialN'
p920
I0
sg18
I0
sg62
g98
sa(dp921
S'trials.thisIndex'
p922
g31
(g69
S'\x00\x00\x00\x00'
p923
tp924
Rp925
sg20
Nsg16
g75
sg15
g76
sg59
g77
sg42
g43
sg28
g29
sg60
g78
sS'Block.thisIndex'
p926
g82
sg19
F0.5687319419776031
sg17
S'slash'
p927
sg21
I0
sS'Block.thisTrialN'
p928
I0
sS'Block.thisRepN'
p929
I0
sS'trials.thisRepN'
p930
I64
sg44
g49
sS'Block.thisN'
p931
I0
sg30
g40
sS'trials.thisN'
p932
I64
sg61
g89
sg41
g12
sS'trials.thisTrialN'
p933
I0
sg18
I0
sg62
g98
sa(dp934
S'trials.thisIndex'
p935
g31
(g69
S'\x00\x00\x00\x00'
p936
tp937
Rp938
sg20
Nsg16
g75
sg15
g145
sg59
g77
sg42
g43
sg28
g29
sg60
g78
sS'Block.thisIndex'
p939
g82
sg19
F0.46848431256148615
sg17
S'slash'
p940
sg21
I0
sS'Block.thisTrialN'
p941
I0
sS'Block.thisRepN'
p942
I0
sS'trials.thisRepN'
p943
I65
sg44
g49
sS'Block.thisN'
p944
I0
sg30
g40
sS'trials.thisN'
p945
I65
sg61
g89
sg41
g12
sS'trials.thisTrialN'
p946
I0
sg18
I0
sg62
g98
sa(dp947
S'trials.thisIndex'
p948
g31
(g69
S'\x00\x00\x00\x00'
p949
tp950
Rp951
sg20
Nsg16
g131
sg15
g76
sg59
g77
sg42
g43
sg28
g29
sg60
g78
sS'Block.thisIndex'
p952
g82
sg19
F0.46887636510291486
sg17
S'z'
p953
sg21
I0
sS'Block.thisTrialN'
p954
I0
sS'Block.thisRepN'
p955
I0
sS'trials.thisRepN'
p956
I66
sg44
g49
sS'Block.thisN'
p957
I0
sg30
g40
sS'trials.thisN'
p958
I66
sg61
g89
sg41
g12
sS'trials.thisTrialN'
p959
I0
sg18
I0
sg62
g98
sa(dp960
S'trials.thisIndex'
p961
g31
(g69
S'\x00\x00\x00\x00'
p962
tp963
Rp964
sg20
Nsg16
g131
sg15
g145
sg59
g77
sg42
g43
sg28
g29
sg60
g78
sS'Block.thisIndex'
p965
g82
sg19
F0.5528737245967932
sg17
S'z'
p966
sg21
I0
sS'Block.thisTrialN'
p967
I0
sS'Block.thisRepN'
p968
I0
sS'trials.thisRepN'
p969
I67
sg44
g49
sS'Block.thisN'
p970
I0
sg30
g40
sS'trials.thisN'
p971
I67
sg61
g89
sg41
g12
sS'trials.thisTrialN'
p972
I0
sg18
I0
sg62
g98
sa(dp973
S'trials.thisIndex'
p974
g31
(g69
S'\x00\x00\x00\x00'
p975
tp976
Rp977
sg20
Nsg16
g75
sg15
g117
sg59
g77
sg42
g43
sg28
g29
sg60
g78
sS'Block.thisIndex'
p978
g82
sg19
F0.417207124435663
sg17
S'slash'
p979
sg21
I1
sS'Block.thisTrialN'
p980
I0
sS'Block.thisRepN'
p981
I0
sS'trials.thisRepN'
p982
I68
sg44
g49
sS'Block.thisN'
p983
I0
sg30
g40
sS'trials.thisN'
p984
I68
sg61
g89
sg41
g12
sS'trials.thisTrialN'
p985
I0
sg18
I0
sg62
g98
sa(dp986
S'trials.thisIndex'
p987
g31
(g69
S'\x00\x00\x00\x00'
p988
tp989
Rp990
sg20
Nsg16
g75
sg15
g76
sg59
g77
sg42
g43
sg28
g29
sg60
g78
sS'Block.thisIndex'
p991
g82
sg19
F0.5347268235364027
sg17
S'slash'
p992
sg21
I0
sS'Block.thisTrialN'
p993
I0
sS'Block.thisRepN'
p994
I0
sS'trials.thisRepN'
p995
I69
sg44
g49
sS'Block.thisN'
p996
I0
sg30
g40
sS'trials.thisN'
p997
I69
sg61
g89
sg41
g12
sS'trials.thisTrialN'
p998
I0
sg18
I0
sg62
g98
sa(dp999
S'trials.thisIndex'
p1000
g31
(g69
S'\x00\x00\x00\x00'
p1001
tp1002
Rp1003
sg20
Nsg16
g75
sg15
g145
sg59
g77
sg42
g43
sg28
g29
sg60
g78
sS'Block.thisIndex'
p1004
g82
sg19
F0.43418772050426924
sg17
S'slash'
p1005
sg21
I0
sS'Block.thisTrialN'
p1006
I0
sS'Block.thisRepN'
p1007
I0
sS'trials.thisRepN'
p1008
I70
sg44
g49
sS'Block.thisN'
p1009
I0
sg30
g40
sS'trials.thisN'
p1010
I70
sg61
g89
sg41
g12
sS'trials.thisTrialN'
p1011
I0
sg18
I0
sg62
g98
sa(dp1012
S'trials.thisIndex'
p1013
g31
(g69
S'\x00\x00\x00\x00'
p1014
tp1015
Rp1016
sg20
Nsg16
g131
sg15
g145
sg59
g77
sg42
g43
sg28
g29
sg60
g78
sS'Block.thisIndex'
p1017
g82
sg19
F0.6021651973933331
sg17
S'z'
p1018
sg21
I0
sS'Block.thisTrialN'
p1019
I0
sS'Block.thisRepN'
p1020
I0
sS'trials.thisRepN'
p1021
I71
sg44
g49
sS'Block.thisN'
p1022
I0
sg30
g40
sS'trials.thisN'
p1023
I71
sg61
g89
sg41
g12
sS'trials.thisTrialN'
p1024
I0
sg18
I0
sg62
g98
sa(dp1025
S'trials.thisIndex'
p1026
g31
(g69
S'\x00\x00\x00\x00'
p1027
tp1028
Rp1029
sg20
Nsg16
g75
sg15
g145
sg59
g77
sg42
g43
sg28
g29
sg60
g78
sS'Block.thisIndex'
p1030
g82
sg19
F0.38515980554075213
sg17
S'slash'
p1031
sg21
I0
sS'Block.thisTrialN'
p1032
I0
sS'Block.thisRepN'
p1033
I0
sS'trials.thisRepN'
p1034
I72
sg44
g49
sS'Block.thisN'
p1035
I0
sg30
g40
sS'trials.thisN'
p1036
I72
sg61
g89
sg41
g12
sS'trials.thisTrialN'
p1037
I0
sg18
I0
sg62
g98
sa(dp1038
S'trials.thisIndex'
p1039
g31
(g69
S'\x00\x00\x00\x00'
p1040
tp1041
Rp1042
sg20
Nsg16
g131
sg15
g145
sg59
g77
sg42
g43
sg28
g29
sg60
g78
sS'Block.thisIndex'
p1043
g82
sg19
F0.48529659287851246
sg17
S'z'
p1044
sg21
I0
sS'Block.thisTrialN'
p1045
I0
sS'Block.thisRepN'
p1046
I0
sS'trials.thisRepN'
p1047
I73
sg44
g49
sS'Block.thisN'
p1048
I0
sg30
g40
sS'trials.thisN'
p1049
I73
sg61
g89
sg41
g12
sS'trials.thisTrialN'
p1050
I0
sg18
I0
sg62
g98
sa(dp1051
S'trials.thisIndex'
p1052
g31
(g69
S'\x00\x00\x00\x00'
p1053
tp1054
Rp1055
sg20
Nsg16
g75
sg15
g117
sg59
g77
sg42
g43
sg28
g29
sg60
g78
sS'Block.thisIndex'
p1056
g82
sg19
F0.40054427566246886
sg17
S'slash'
p1057
sg21
I1
sS'Block.thisTrialN'
p1058
I0
sS'Block.thisRepN'
p1059
I0
sS'trials.thisRepN'
p1060
I74
sg44
g49
sS'Block.thisN'
p1061
I0
sg30
g40
sS'trials.thisN'
p1062
I74
sg61
g89
sg41
g12
sS'trials.thisTrialN'
p1063
I0
sg18
I0
sg62
g98
sa(dp1064
S'trials.thisIndex'
p1065
g31
(g69
S'\x00\x00\x00\x00'
p1066
tp1067
Rp1068
sg20
Nsg16
g131
sg15
g145
sg59
g77
sg42
g43
sg28
g29
sg60
g78
sS'Block.thisIndex'
p1069
g82
sg19
F0.45105706396498135
sg17
S'z'
p1070
sg21
I0
sS'Block.thisTrialN'
p1071
I0
sS'Block.thisRepN'
p1072
I0
sS'trials.thisRepN'
p1073
I75
sg44
g49
sS'Block.thisN'
p1074
I0
sg30
g40
sS'trials.thisN'
p1075
I75
sg61
g89
sg41
g12
sS'trials.thisTrialN'
p1076
I0
sg18
I0
sg62
g98
sa(dp1077
S'trials.thisIndex'
p1078
g31
(g69
S'\x00\x00\x00\x00'
p1079
tp1080
Rp1081
sg20
Nsg16
g75
sg15
g117
sg59
g77
sg42
g43
sg28
g29
sg60
g78
sS'Block.thisIndex'
p1082
g82
sg19
F0.38523287920907023
sg17
S'slash'
p1083
sg21
I1
sS'Block.thisTrialN'
p1084
I0
sS'Block.thisRepN'
p1085
I0
sS'trials.thisRepN'
p1086
I76
sg44
g49
sS'Block.thisN'
p1087
I0
sg30
g40
sS'trials.thisN'
p1088
I76
sg61
g89
sg41
g12
sS'trials.thisTrialN'
p1089
I0
sg18
I0
sg62
g98
sa(dp1090
S'trials.thisIndex'
p1091
g31
(g69
S'\x00\x00\x00\x00'
p1092
tp1093
Rp1094
sg20
Nsg16
g75
sg15
g117
sg59
g77
sg42
g43
sg28
g29
sg60
g78
sS'Block.thisIndex'
p1095
g82
sg19
F0.4183270399662433
sg17
S'slash'
p1096
sg21
I1
sS'Block.thisTrialN'
p1097
I0
sS'Block.thisRepN'
p1098
I0
sS'trials.thisRepN'
p1099
I77
sg44
g49
sS'Block.thisN'
p1100
I0
sg30
g40
sS'trials.thisN'
p1101
I77
sg61
g89
sg41
g12
sS'trials.thisTrialN'
p1102
I0
sg18
I0
sg62
g98
sa(dp1103
S'trials.thisIndex'
p1104
g31
(g69
S'\x00\x00\x00\x00'
p1105
tp1106
Rp1107
sg20
Nsg16
g131
sg15
g145
sg59
g77
sg42
g43
sg28
g29
sg60
g78
sS'Block.thisIndex'
p1108
g82
sg19
F0.4675885443484731
sg17
S'z'
p1109
sg21
I0
sS'Block.thisTrialN'
p1110
I0
sS'Block.thisRepN'
p1111
I0
sS'trials.thisRepN'
p1112
I78
sg44
g49
sS'Block.thisN'
p1113
I0
sg30
g40
sS'trials.thisN'
p1114
I78
sg61
g89
sg41
g12
sS'trials.thisTrialN'
p1115
I0
sg18
I0
sg62
g98
sa(dp1116
S'trials.thisIndex'
p1117
g31
(g69
S'\x00\x00\x00\x00'
p1118
tp1119
Rp1120
sg20
Nsg16
g75
sg15
g117
sg59
g77
sg42
g43
sg28
g29
sg60
g78
sS'Block.thisIndex'
p1121
g82
sg19
F0.43535115181475703
sg17
S'slash'
p1122
sg21
I1
sS'Block.thisTrialN'
p1123
I0
sS'Block.thisRepN'
p1124
I0
sS'trials.thisRepN'
p1125
I79
sg44
g49
sS'Block.thisN'
p1126
I0
sg30
g40
sS'trials.thisN'
p1127
I79
sg61
g89
sg41
g12
sS'trials.thisTrialN'
p1128
I0
sg18
I0
sg62
g98
sa(dp1129
g42
g43
sS'Block.thisTrialN'
p1130
I0
sg60
g78
sg30
g40
sg44
g49
sS'Block.thisN'
p1131
I0
sg59
g77
sg61
g89
sg41
g12
sg62
g98
sg28
g29
sS'Block.thisRepN'
p1132
I0
sS'Block.thisIndex'
p1133
g82
sa(dp1134
S'trials.thisIndex'
p1135
g31
(g69
S'\x00\x00\x00\x00'
p1136
tp1137
Rp1138
sg20
Nsg16
g131
sg15
g117
sg59
VIn the upcoming task, you will be presented with a series of numbers and letters. This time however, you will be asked to respond to both. Please place your left index finger on the letter "Z" and your right index finger on the "/" symbol on the same keyboard row.  Then, place your right middle and ring finger on the [ and ] keys respectively. Press "Z" to view an example of how the trials in this stage of the experiment will proceed.
p1139
sg42
g43
sg28
g29
sg60
VRemember_T1
p1140
sS'Block.thisIndex'
p1141
g31
(g69
S'\x01\x00\x00\x00'
p1142
tp1143
Rp1144
sg19
F0.6527990909307846
sg17
S'z'
p1145
sg21
I1
sS'Block.thisTrialN'
p1146
I1
sS'Block.thisRepN'
p1147
I0
sS'trials.thisRepN'
p1148
I0
sg44
g49
sS'Block.thisN'
p1149
I1
sg30
g40
sS'trials.thisN'
p1150
I0
sg61
Vexample2.jpg
p1151
sg41
g12
sS'trials.thisTrialN'
p1152
I0
sg18
I0
sg62
g31
(g93
S'P\x00\x00\x00\x00\x00\x00\x00'
p1153
tp1154
Rp1155
sa(dp1156
S'trials.thisIndex'
p1157
g31
(g69
S'\x00\x00\x00\x00'
p1158
tp1159
Rp1160
sg20
S'bracketleft'
p1161
sg16
g131
sg15
g145
sg59
g1139
sg42
g43
sg28
g29
sg60
g1140
sS'Block.thisIndex'
p1162
g1144
sg19
F0.6523438173517206
sg17
S'z'
p1163
sg21
I1
sS'Block.thisTrialN'
p1164
I1
sS'Block.thisRepN'
p1165
I0
sS'Block.thisN'
p1166
I1
sg44
g49
sg22
F1.8551314546020876
sg30
g40
sS'trials.thisN'
p1167
I1
sg61
g1151
sg41
g12
sg62
g1155
sg18
I0
sS'trials.thisRepN'
p1168
I1
sS'trials.thisTrialN'
p1169
I0
sa(dp1170
S'trials.thisIndex'
p1171
g31
(g69
S'\x00\x00\x00\x00'
p1172
tp1173
Rp1174
sg20
S'bracketright'
p1175
sg16
g131
sg15
g76
sg59
g1139
sg42
g43
sg28
g29
sg60
g1140
sS'Block.thisIndex'
p1176
g1144
sg19
F2.0726450779129664
sg17
S'z'
p1177
sg21
I1
sS'Block.thisTrialN'
p1178
I1
sS'Block.thisRepN'
p1179
I0
sS'Block.thisN'
p1180
I1
sg44
g49
sg22
F0.43419675207951514
sg30
g40
sS'trials.thisN'
p1181
I2
sg61
g1151
sg41
g12
sg62
g1155
sg18
I0
sS'trials.thisRepN'
p1182
I2
sS'trials.thisTrialN'
p1183
I0
sa(dp1184
S'trials.thisIndex'
p1185
g31
(g69
S'\x00\x00\x00\x00'
p1186
tp1187
Rp1188
sg20
Nsg16
g75
sg15
g117
sg59
g1139
sg42
g43
sg28
g29
sg60
g1140
sS'Block.thisIndex'
p1189
g1144
sg19
F2.5246208995613415
sg17
S'slash'
p1190
sg21
I1
sS'Block.thisTrialN'
p1191
I1
sS'Block.thisRepN'
p1192
I0
sS'trials.thisRepN'
p1193
I3
sg44
g49
sS'Block.thisN'
p1194
I1
sg30
g40
sS'trials.thisN'
p1195
I3
sg61
g1151
sg41
g12
sS'trials.thisTrialN'
p1196
I0
sg18
I0
sg62
g1155
sa(dp1197
S'trials.thisIndex'
p1198
g31
(g69
S'\x00\x00\x00\x00'
p1199
tp1200
Rp1201
sg20
Nsg16
g131
sg15
g117
sg59
g1139
sg42
g43
sg28
g29
sg60
g1140
sS'Block.thisIndex'
p1202
g1144
sg19
F2.4577999571411056
sg17
S'z'
p1203
sg21
I1
sS'Block.thisTrialN'
p1204
I1
sS'Block.thisRepN'
p1205
I0
sS'trials.thisRepN'
p1206
I4
sg44
g49
sS'Block.thisN'
p1207
I1
sg30
g40
sS'trials.thisN'
p1208
I4
sg61
g1151
sg41
g12
sS'trials.thisTrialN'
p1209
I0
sg18
I0
sg62
g1155
sa(dp1210
S'trials.thisIndex'
p1211
g31
(g69
S'\x00\x00\x00\x00'
p1212
tp1213
Rp1214
sg20
S'bracketleft'
p1215
sg16
g131
sg15
g145
sg59
g1139
sg42
g43
sg28
g29
sg60
g1140
sS'Block.thisIndex'
p1216
g1144
sg19
F0.8697527564781922
sg17
S'z'
p1217
sg21
I1
sS'Block.thisTrialN'
p1218
I1
sS'Block.thisRepN'
p1219
I0
sS'Block.thisN'
p1220
I1
sg44
g49
sg22
F0.7521809205481986
sg30
g40
sS'trials.thisN'
p1221
I5
sg61
g1151
sg41
g12
sg62
g1155
sg18
I0
sS'trials.thisRepN'
p1222
I5
sS'trials.thisTrialN'
p1223
I0
sa(dp1224
S'trials.thisIndex'
p1225
g31
(g69
S'\x00\x00\x00\x00'
p1226
tp1227
Rp1228
sg20
S'bracketleft'
p1229
sg16
g131
sg15
g145
sg59
g1139
sg42
g43
sg28
g29
sg60
g1140
sS'Block.thisIndex'
p1230
g1144
sg19
F0.8689936934970319
sg17
S'z'
p1231
sg21
I1
sS'Block.thisTrialN'
p1232
I1
sS'Block.thisRepN'
p1233
I0
sS'Block.thisN'
p1234
I1
sg44
g49
sg22
F0.5013888102039346
sg30
g40
sS'trials.thisN'
p1235
I6
sg61
g1151
sg41
g12
sg62
g1155
sg18
I0
sS'trials.thisRepN'
p1236
I6
sS'trials.thisTrialN'
p1237
I0
sa(dp1238
S'trials.thisIndex'
p1239
g31
(g69
S'\x00\x00\x00\x00'
p1240
tp1241
Rp1242
sg20
S'bracketleft'
p1243
sg16
g131
sg15
g145
sg59
g1139
sg42
g43
sg28
g29
sg60
g1140
sS'Block.thisIndex'
p1244
g1144
sg19
F2.4910464231252263
sg17
S'z'
p1245
sg21
I1
sS'Block.thisTrialN'
p1246
I1
sS'Block.thisRepN'
p1247
I0
sS'Block.thisN'
p1248
I1
sg44
g49
sg22
F0.8384411005717993
sg30
g40
sS'trials.thisN'
p1249
I7
sg61
g1151
sg41
g12
sg62
g1155
sg18
I0
sS'trials.thisRepN'
p1250
I7
sS'trials.thisTrialN'
p1251
I0
sa(dp1252
S'trials.thisIndex'
p1253
g31
(g69
S'\x00\x00\x00\x00'
p1254
tp1255
Rp1256
sg20
S'bracketright'
p1257
sg16
g75
sg15
g76
sg59
g1139
sg42
g43
sg28
g29
sg60
g1140
sS'Block.thisIndex'
p1258
g1144
sg19
F1.7890810698972928
sg17
S'slash'
p1259
sg21
I1
sS'Block.thisTrialN'
p1260
I1
sS'Block.thisRepN'
p1261
I0
sS'Block.thisN'
p1262
I1
sg44
g49
sg22
F0.5520346090033854
sg30
g40
sS'trials.thisN'
p1263
I8
sg61
g1151
sg41
g12
sg62
g1155
sg18
I0
sS'trials.thisRepN'
p1264
I8
sS'trials.thisTrialN'
p1265
I0
sa(dp1266
S'trials.thisIndex'
p1267
g31
(g69
S'\x00\x00\x00\x00'
p1268
tp1269
Rp1270
sg20
S'bracketright'
p1271
sg16
g131
sg15
g76
sg59
g1139
sg42
g43
sg28
g29
sg60
g1140
sS'Block.thisIndex'
p1272
g1144
sg19
F2.306594118472276
sg17
S'z'
p1273
sg21
I1
sS'Block.thisTrialN'
p1274
I1
sS'Block.thisRepN'
p1275
I0
sS'Block.thisN'
p1276
I1
sg44
g49
sg22
F0.6025083973127039
sg30
g40
sS'trials.thisN'
p1277
I9
sg61
g1151
sg41
g12
sg62
g1155
sg18
I0
sS'trials.thisRepN'
p1278
I9
sS'trials.thisTrialN'
p1279
I0
sa(dp1280
S'trials.thisIndex'
p1281
g31
(g69
S'\x00\x00\x00\x00'
p1282
tp1283
Rp1284
sg20
S'bracketleft'
p1285
sg16
g131
sg15
g145
sg59
g1139
sg42
g43
sg28
g29
sg60
g1140
sS'Block.thisIndex'
p1286
g1144
sg19
F1.8889395204550965
sg17
S'z'
p1287
sg21
I1
sS'Block.thisTrialN'
p1288
I1
sS'Block.thisRepN'
p1289
I0
sS'Block.thisN'
p1290
I1
sg44
g49
sg22
F0.5681301105378225
sg30
g40
sS'trials.thisN'
p1291
I10
sg61
g1151
sg41
g12
sg62
g1155
sg18
I0
sS'trials.thisRepN'
p1292
I10
sS'trials.thisTrialN'
p1293
I0
sa(dp1294
S'trials.thisIndex'
p1295
g31
(g69
S'\x00\x00\x00\x00'
p1296
tp1297
Rp1298
sg20
S'bracketright'
p1299
sg16
g131
sg15
g76
sg59
g1139
sg42
g43
sg28
g29
sg60
g1140
sS'Block.thisIndex'
p1300
g1144
sg19
F1.0702685416217719
sg17
S'z'
p1301
sg21
I1
sS'Block.thisTrialN'
p1302
I1
sS'Block.thisRepN'
p1303
I0
sS'Block.thisN'
p1304
I1
sg44
g49
sg22
F0.48555974018563575
sg30
g40
sS'trials.thisN'
p1305
I11
sg61
g1151
sg41
g12
sg62
g1155
sg18
I0
sS'trials.thisRepN'
p1306
I11
sS'trials.thisTrialN'
p1307
I0
sa(dp1308
S'trials.thisIndex'
p1309
g31
(g69
S'\x00\x00\x00\x00'
p1310
tp1311
Rp1312
sg20
S'bracketleft'
p1313
sg16
g75
sg15
g145
sg59
g1139
sg42
g43
sg28
g29
sg60
g1140
sS'Block.thisIndex'
p1314
g1144
sg19
F1.9386706668337865
sg17
S'slash'
p1315
sg21
I1
sS'Block.thisTrialN'
p1316
I1
sS'Block.thisRepN'
p1317
I0
sS'Block.thisN'
p1318
I1
sg44
g49
sg22
F0.6518536490439146
sg30
g40
sS'trials.thisN'
p1319
I12
sg61
g1151
sg41
g12
sg62
g1155
sg18
I0
sS'trials.thisRepN'
p1320
I12
sS'trials.thisTrialN'
p1321
I0
sa(dp1322
S'trials.thisIndex'
p1323
g31
(g69
S'\x00\x00\x00\x00'
p1324
tp1325
Rp1326
sg20
S'bracketright'
p1327
sg16
g75
sg15
g76
sg59
g1139
sg42
g43
sg28
g29
sg60
g1140
sS'Block.thisIndex'
p1328
g1144
sg19
F2.139544430841852
sg17
S'slash'
p1329
sg21
I1
sS'Block.thisTrialN'
p1330
I1
sS'Block.thisRepN'
p1331
I0
sS'Block.thisN'
p1332
I1
sg44
g49
sg22
F0.5681773210544634
sg30
g40
sS'trials.thisN'
p1333
I13
sg61
g1151
sg41
g12
sg62
g1155
sg18
I0
sS'trials.thisRepN'
p1334
I13
sS'trials.thisTrialN'
p1335
I0
sa(dp1336
S'trials.thisIndex'
p1337
g31
(g69
S'\x00\x00\x00\x00'
p1338
tp1339
Rp1340
sg20
S'bracketright'
p1341
sg16
g75
sg15
g76
sg59
g1139
sg42
g43
sg28
g29
sg60
g1140
sS'Block.thisIndex'
p1342
g1144
sg19
F0.7526780677999341
sg17
S'slash'
p1343
sg21
I1
sS'Block.thisTrialN'
p1344
I1
sS'Block.thisRepN'
p1345
I0
sS'Block.thisN'
p1346
I1
sg44
g49
sg22
F0.40111695974155737
sg30
g40
sS'trials.thisN'
p1347
I14
sg61
g1151
sg41
g12
sg62
g1155
sg18
I0
sS'trials.thisRepN'
p1348
I14
sS'trials.thisTrialN'
p1349
I0
sa(dp1350
S'trials.thisIndex'
p1351
g31
(g69
S'\x00\x00\x00\x00'
p1352
tp1353
Rp1354
sg20
S'bracketleft'
p1355
sg16
g131
sg15
g145
sg59
g1139
sg42
g43
sg28
g29
sg60
g1140
sS'Block.thisIndex'
p1356
g1144
sg19
F0.5189043219379528
sg17
S'z'
p1357
sg21
I1
sS'Block.thisTrialN'
p1358
I1
sS'Block.thisRepN'
p1359
I0
sS'Block.thisN'
p1360
I1
sg44
g49
sg22
F0.5511733249913959
sg30
g40
sS'trials.thisN'
p1361
I15
sg61
g1151
sg41
g12
sg62
g1155
sg18
I0
sS'trials.thisRepN'
p1362
I15
sS'trials.thisTrialN'
p1363
I0
sa(dp1364
S'trials.thisIndex'
p1365
g31
(g69
S'\x00\x00\x00\x00'
p1366
tp1367
Rp1368
sg20
S'bracketright'
p1369
sg16
g75
sg15
g76
sg59
g1139
sg42
g43
sg28
g29
sg60
g1140
sS'Block.thisIndex'
p1370
g1144
sg19
F1.1193141092117003
sg17
S'slash'
p1371
sg21
I1
sS'Block.thisTrialN'
p1372
I1
sS'Block.thisRepN'
p1373
I0
sS'Block.thisN'
p1374
I1
sg44
g49
sg22
F1.4203361552899878
sg30
g40
sS'trials.thisN'
p1375
I16
sg61
g1151
sg41
g12
sg62
g1155
sg18
I0
sS'trials.thisRepN'
p1376
I16
sS'trials.thisTrialN'
p1377
I0
sa(dp1378
S'trials.thisIndex'
p1379
g31
(g69
S'\x00\x00\x00\x00'
p1380
tp1381
Rp1382
sg20
S'bracketleft'
p1383
sg16
g131
sg15
g145
sg59
g1139
sg42
g43
sg28
g29
sg60
g1140
sS'Block.thisIndex'
p1384
g1144
sg19
F2.140025567572593
sg17
S'z'
p1385
sg21
I1
sS'Block.thisTrialN'
p1386
I1
sS'Block.thisRepN'
p1387
I0
sS'Block.thisN'
p1388
I1
sg44
g49
sg22
F0.43535977286410343
sg30
g40
sS'trials.thisN'
p1389
I17
sg61
g1151
sg41
g12
sg62
g1155
sg18
I0
sS'trials.thisRepN'
p1390
I17
sS'trials.thisTrialN'
p1391
I0
sa(dp1392
S'trials.thisIndex'
p1393
g31
(g69
S'\x00\x00\x00\x00'
p1394
tp1395
Rp1396
sg20
S'bracketright'
p1397
sg16
g131
sg15
g76
sg59
g1139
sg42
g43
sg28
g29
sg60
g1140
sS'Block.thisIndex'
p1398
g1144
sg19
F0.6031126919115195
sg17
S'z'
p1399
sg21
I1
sS'Block.thisTrialN'
p1400
I1
sS'Block.thisRepN'
p1401
I0
sS'Block.thisN'
p1402
I1
sg44
g49
sg22
F0.45176070590787276
sg30
g40
sS'trials.thisN'
p1403
I18
sg61
g1151
sg41
g12
sg62
g1155
sg18
I0
sS'trials.thisRepN'
p1404
I18
sS'trials.thisTrialN'
p1405
I0
sa(dp1406
S'trials.thisIndex'
p1407
g31
(g69
S'\x00\x00\x00\x00'
p1408
tp1409
Rp1410
sg20
S'bracketright'
p1411
sg16
g75
sg15
g145
sg59
g1139
sg42
g43
sg28
g29
sg60
g1140
sS'Block.thisIndex'
p1412
g1144
sg19
F1.4539036527785356
sg17
S'z'
p1413
sg21
I0
sS'Block.thisTrialN'
p1414
I1
sS'Block.thisRepN'
p1415
I0
sS'Block.thisN'
p1416
I1
sg44
g49
sg22
F0.5180972273865336
sg30
g40
sS'trials.thisN'
p1417
I19
sg61
g1151
sg41
g12
sg62
g1155
sg18
I0
sS'trials.thisRepN'
p1418
I19
sS'trials.thisTrialN'
p1419
I0
sa(dp1420
S'trials.thisIndex'
p1421
g31
(g69
S'\x00\x00\x00\x00'
p1422
tp1423
Rp1424
sg20
Nsg16
g75
sg15
g117
sg59
g1139
sg42
g43
sg28
g29
sg60
g1140
sS'Block.thisIndex'
p1425
g1144
sg19
F2.9585462938102864
sg17
S'slash'
p1426
sg21
I1
sS'Block.thisTrialN'
p1427
I1
sS'Block.thisRepN'
p1428
I0
sS'trials.thisRepN'
p1429
I20
sg44
g49
sS'Block.thisN'
p1430
I1
sg30
g40
sS'trials.thisN'
p1431
I20
sg61
g1151
sg41
g12
sS'trials.thisTrialN'
p1432
I0
sg18
I0
sg62
g1155
sa(dp1433
S'trials.thisIndex'
p1434
g31
(g69
S'\x00\x00\x00\x00'
p1435
tp1436
Rp1437
sg20
S'bracketleft'
p1438
sg16
g131
sg15
g145
sg59
g1139
sg42
g43
sg28
g29
sg60
g1140
sS'Block.thisIndex'
p1439
g1144
sg19
F1.4036170644267258
sg17
S'z'
p1440
sg21
I1
sS'Block.thisTrialN'
p1441
I1
sS'Block.thisRepN'
p1442
I0
sS'Block.thisN'
p1443
I1
sg44
g49
sg22
F0.4016646017189487
sg30
g40
sS'trials.thisN'
p1444
I21
sg61
g1151
sg41
g12
sg62
g1155
sg18
I0
sS'trials.thisRepN'
p1445
I21
sS'trials.thisTrialN'
p1446
I0
sa(dp1447
S'trials.thisIndex'
p1448
g31
(g69
S'\x00\x00\x00\x00'
p1449
tp1450
Rp1451
sg20
S'bracketright'
p1452
sg16
g75
sg15
g76
sg59
g1139
sg42
g43
sg28
g29
sg60
g1140
sS'Block.thisIndex'
p1453
g1144
sg19
F1.4377432881010463
sg17
S'slash'
p1454
sg21
I1
sS'Block.thisTrialN'
p1455
I1
sS'Block.thisRepN'
p1456
I0
sS'Block.thisN'
p1457
I1
sg44
g49
sg22
F0.4343786151966924
sg30
g40
sS'trials.thisN'
p1458
I22
sg61
g1151
sg41
g12
sg62
g1155
sg18
I0
sS'trials.thisRepN'
p1459
I22
sS'trials.thisTrialN'
p1460
I0
sa(dp1461
S'trials.thisIndex'
p1462
g31
(g69
S'\x00\x00\x00\x00'
p1463
tp1464
Rp1465
sg20
Nsg16
g131
sg15
g117
sg59
g1139
sg42
g43
sg28
g29
sg60
g1140
sS'Block.thisIndex'
p1466
g1144
sg19
F1.487499066051896
sg17
S'z'
p1467
sg21
I1
sS'Block.thisTrialN'
p1468
I1
sS'Block.thisRepN'
p1469
I0
sS'trials.thisRepN'
p1470
I23
sg44
g49
sS'Block.thisN'
p1471
I1
sg30
g40
sS'trials.thisN'
p1472
I23
sg61
g1151
sg41
g12
sS'trials.thisTrialN'
p1473
I0
sg18
I0
sg62
g1155
sa(dp1474
S'trials.thisIndex'
p1475
g31
(g69
S'\x00\x00\x00\x00'
p1476
tp1477
Rp1478
sg20
Nsg16
g131
sg15
g117
sg59
g1139
sg42
g43
sg28
g29
sg60
g1140
sS'Block.thisIndex'
p1479
g1144
sg19
F0.7361917453017668
sg17
S'z'
p1480
sg21
I1
sS'Block.thisTrialN'
p1481
I1
sS'Block.thisRepN'
p1482
I0
sS'trials.thisRepN'
p1483
I24
sg44
g49
sS'Block.thisN'
p1484
I1
sg30
g40
sS'trials.thisN'
p1485
I24
sg61
g1151
sg41
g12
sS'trials.thisTrialN'
p1486
I0
sg18
I0
sg62
g1155
sa(dp1487
S'trials.thisIndex'
p1488
g31
(g69
S'\x00\x00\x00\x00'
p1489
tp1490
Rp1491
sg20
S'bracketright'
p1492
sg16
g75
sg15
g76
sg59
g1139
sg42
g43
sg28
g29
sg60
g1140
sS'Block.thisIndex'
p1493
g1144
sg19
F0.7860973653259862
sg17
S'slash'
p1494
sg21
I1
sS'Block.thisTrialN'
p1495
I1
sS'Block.thisRepN'
p1496
I0
sS'Block.thisN'
p1497
I1
sg44
g49
sg22
F0.2503138472966384
sg30
g40
sS'trials.thisN'
p1498
I25
sg61
g1151
sg41
g12
sg62
g1155
sg18
I0
sS'trials.thisRepN'
p1499
I25
sS'trials.thisTrialN'
p1500
I0
sa(dp1501
S'trials.thisIndex'
p1502
g31
(g69
S'\x00\x00\x00\x00'
p1503
tp1504
Rp1505
sg20
S'bracketright'
p1506
sg16
g75
sg15
g76
sg59
g1139
sg42
g43
sg28
g29
sg60
g1140
sS'Block.thisIndex'
p1507
g1144
sg19
F0.9374628986934113
sg17
S'slash'
p1508
sg21
I1
sS'Block.thisTrialN'
p1509
I1
sS'Block.thisRepN'
p1510
I0
sS'Block.thisN'
p1511
I1
sg44
g49
sg22
F0.3012868354908278
sg30
g40
sS'trials.thisN'
p1512
I26
sg61
g1151
sg41
g12
sg62
g1155
sg18
I0
sS'trials.thisRepN'
p1513
I26
sS'trials.thisTrialN'
p1514
I0
sa(dp1515
S'trials.thisIndex'
p1516
g31
(g69
S'\x00\x00\x00\x00'
p1517
tp1518
Rp1519
sg20
Nsg16
g131
sg15
g117
sg59
g1139
sg42
g43
sg28
g29
sg60
g1140
sS'Block.thisIndex'
p1520
g1144
sg19
F0.8526715814878116
sg17
S'slash'
p1521
sg21
I1
sS'Block.thisTrialN'
p1522
I1
sS'Block.thisRepN'
p1523
I0
sS'trials.thisRepN'
p1524
I27
sg44
g49
sS'Block.thisN'
p1525
I1
sg30
g40
sS'trials.thisN'
p1526
I27
sg61
g1151
sg41
g12
sS'trials.thisTrialN'
p1527
I0
sg18
I0
sg62
g1155
sa(dp1528
S'trials.thisIndex'
p1529
g31
(g69
S'\x00\x00\x00\x00'
p1530
tp1531
Rp1532
sg20
S'bracketright'
p1533
sg16
g131
sg15
g76
sg59
g1139
sg42
g43
sg28
g29
sg60
g1140
sS'Block.thisIndex'
p1534
g1144
sg19
F0.6849843466352468
sg17
S'z'
p1535
sg21
I1
sS'Block.thisTrialN'
p1536
I1
sS'Block.thisRepN'
p1537
I0
sS'Block.thisN'
p1538
I1
sg44
g49
sg22
F0.48409087736945366
sg30
g40
sS'trials.thisN'
p1539
I28
sg61
g1151
sg41
g12
sg62
g1155
sg18
I0
sS'trials.thisRepN'
p1540
I28
sS'trials.thisTrialN'
p1541
I0
sa(dp1542
S'trials.thisIndex'
p1543
g31
(g69
S'\x00\x00\x00\x00'
p1544
tp1545
Rp1546
sg20
S'bracketright'
p1547
sg16
g131
sg15
g76
sg59
g1139
sg42
g43
sg28
g29
sg60
g1140
sS'Block.thisIndex'
p1548
g1144
sg19
F0.9195204396892223
sg17
S'z'
p1549
sg21
I1
sS'Block.thisTrialN'
p1550
I1
sS'Block.thisRepN'
p1551
I0
sS'Block.thisN'
p1552
I1
sg44
g49
sg22
F0.4843589509910089
sg30
g40
sS'trials.thisN'
p1553
I29
sg61
g1151
sg41
g12
sg62
g1155
sg18
I0
sS'trials.thisRepN'
p1554
I29
sS'trials.thisTrialN'
p1555
I0
sa(dp1556
S'trials.thisIndex'
p1557
g31
(g69
S'\x00\x00\x00\x00'
p1558
tp1559
Rp1560
sg20
S'bracketright'
p1561
sg16
g131
sg15
g76
sg59
g1139
sg42
g43
sg28
g29
sg60
g1140
sS'Block.thisIndex'
p1562
g1144
sg19
F0.6347966950997943
sg17
S'z'
p1563
sg21
I1
sS'Block.thisTrialN'
p1564
I1
sS'Block.thisRepN'
p1565
I0
sS'Block.thisN'
p1566
I1
sg44
g49
sg22
F0.4512676639169513
sg30
g40
sS'trials.thisN'
p1567
I30
sg61
g1151
sg41
g12
sg62
g1155
sg18
I0
sS'trials.thisRepN'
p1568
I30
sS'trials.thisTrialN'
p1569
I0
sa(dp1570
S'trials.thisIndex'
p1571
g31
(g69
S'\x00\x00\x00\x00'
p1572
tp1573
Rp1574
sg20
S'bracketright'
p1575
sg16
g131
sg15
g76
sg59
g1139
sg42
g43
sg28
g29
sg60
g1140
sS'Block.thisIndex'
p1576
g1144
sg19
F0.5520497984725807
sg17
S'z'
p1577
sg21
I1
sS'Block.thisTrialN'
p1578
I1
sS'Block.thisRepN'
p1579
I0
sS'Block.thisN'
p1580
I1
sg44
g49
sg22
F0.4178549348125671
sg30
g40
sS'trials.thisN'
p1581
I31
sg61
g1151
sg41
g12
sg62
g1155
sg18
I0
sS'trials.thisRepN'
p1582
I31
sS'trials.thisTrialN'
p1583
I0
sa(dp1584
S'trials.thisIndex'
p1585
g31
(g69
S'\x00\x00\x00\x00'
p1586
tp1587
Rp1588
sg20
Nsg16
g75
sg15
g117
sg59
g1139
sg42
g43
sg28
g29
sg60
g1140
sS'Block.thisIndex'
p1589
g1144
sg19
F1.672019928584632
sg17
S'slash'
p1590
sg21
I1
sS'Block.thisTrialN'
p1591
I1
sS'Block.thisRepN'
p1592
I0
sS'trials.thisRepN'
p1593
I32
sg44
g49
sS'Block.thisN'
p1594
I1
sg30
g40
sS'trials.thisN'
p1595
I32
sg61
g1151
sg41
g12
sS'trials.thisTrialN'
p1596
I0
sg18
I0
sg62
g1155
sa(dp1597
S'trials.thisIndex'
p1598
g31
(g69
S'\x00\x00\x00\x00'
p1599
tp1600
Rp1601
sg20
S'bracketleft'
p1602
sg16
g131
sg15
g145
sg59
g1139
sg42
g43
sg28
g29
sg60
g1140
sS'Block.thisIndex'
p1603
g1144
sg19
F0.6690633187445201
sg17
S'z'
p1604
sg21
I1
sS'Block.thisTrialN'
p1605
I1
sS'Block.thisRepN'
p1606
I0
sS'Block.thisN'
p1607
I1
sg44
g49
sg22
F1.036385759995028
sg30
g40
sS'trials.thisN'
p1608
I33
sg61
g1151
sg41
g12
sg62
g1155
sg18
I0
sS'trials.thisRepN'
p1609
I33
sS'trials.thisTrialN'
p1610
I0
sa(dp1611
S'trials.thisIndex'
p1612
g31
(g69
S'\x00\x00\x00\x00'
p1613
tp1614
Rp1615
sg20
Nsg16
g131
sg15
g117
sg59
g1139
sg42
g43
sg28
g29
sg60
g1140
sS'Block.thisIndex'
p1616
g1144
sg19
F0.8529614129984111
sg17
S'z'
p1617
sg21
I1
sS'Block.thisTrialN'
p1618
I1
sS'Block.thisRepN'
p1619
I0
sS'trials.thisRepN'
p1620
I34
sg44
g49
sS'Block.thisN'
p1621
I1
sg30
g40
sS'trials.thisN'
p1622
I34
sg61
g1151
sg41
g12
sS'trials.thisTrialN'
p1623
I0
sg18
I0
sg62
g1155
sa(dp1624
S'trials.thisIndex'
p1625
g31
(g69
S'\x00\x00\x00\x00'
p1626
tp1627
Rp1628
sg20
S'bracketleft'
p1629
sg16
g131
sg15
g145
sg59
g1139
sg42
g43
sg28
g29
sg60
g1140
sS'Block.thisIndex'
p1630
g1144
sg19
F0.5851164539726597
sg17
S'z'
p1631
sg21
I1
sS'Block.thisTrialN'
p1632
I1
sS'Block.thisRepN'
p1633
I0
sS'Block.thisN'
p1634
I1
sg44
g49
sg22
F0.5342202341798838
sg30
g40
sS'trials.thisN'
p1635
I35
sg61
g1151
sg41
g12
sg62
g1155
sg18
I0
sS'trials.thisRepN'
p1636
I35
sS'trials.thisTrialN'
p1637
I0
sa(dp1638
S'trials.thisIndex'
p1639
g31
(g69
S'\x00\x00\x00\x00'
p1640
tp1641
Rp1642
sg20
S'bracketleft'
p1643
sg16
g75
sg15
g145
sg59
g1139
sg42
g43
sg28
g29
sg60
g1140
sS'Block.thisIndex'
p1644
g1144
sg19
F0.8195708523089706
sg17
S'slash'
p1645
sg21
I1
sS'Block.thisTrialN'
p1646
I1
sS'Block.thisRepN'
p1647
I0
sS'Block.thisN'
p1648
I1
sg44
g49
sg22
F0.48439589835106744
sg30
g40
sS'trials.thisN'
p1649
I36
sg61
g1151
sg41
g12
sg62
g1155
sg18
I0
sS'trials.thisRepN'
p1650
I36
sS'trials.thisTrialN'
p1651
I0
sa(dp1652
S'trials.thisIndex'
p1653
g31
(g69
S'\x00\x00\x00\x00'
p1654
tp1655
Rp1656
sg20
S'bracketright'
p1657
sg16
g131
sg15
g76
sg59
g1139
sg42
g43
sg28
g29
sg60
g1140
sS'Block.thisIndex'
p1658
g1144
sg19
F0.9869986345893267
sg17
S'z'
p1659
sg21
I1
sS'Block.thisTrialN'
p1660
I1
sS'Block.thisRepN'
p1661
I0
sS'Block.thisN'
p1662
I1
sg44
g49
sg22
F0.5183061852330866
sg30
g40
sS'trials.thisN'
p1663
I37
sg61
g1151
sg41
g12
sg62
g1155
sg18
I0
sS'trials.thisRepN'
p1664
I37
sS'trials.thisTrialN'
p1665
I0
sa(dp1666
S'trials.thisIndex'
p1667
g31
(g69
S'\x00\x00\x00\x00'
p1668
tp1669
Rp1670
sg20
S'bracketleft'
p1671
sg16
g131
sg15
g145
sg59
g1139
sg42
g43
sg28
g29
sg60
g1140
sS'Block.thisIndex'
p1672
g1144
sg19
F1.6550812061905162
sg17
S'z'
p1673
sg21
I1
sS'Block.thisTrialN'
p1674
I1
sS'Block.thisRepN'
p1675
I0
sS'Block.thisN'
p1676
I1
sg44
g49
sg22
F0.8863958999936585
sg30
g40
sS'trials.thisN'
p1677
I38
sg61
g1151
sg41
g12
sg62
g1155
sg18
I0
sS'trials.thisRepN'
p1678
I38
sS'trials.thisTrialN'
p1679
I0
sa(dp1680
S'trials.thisIndex'
p1681
g31
(g69
S'\x00\x00\x00\x00'
p1682
tp1683
Rp1684
sg20
S'bracketright'
p1685
sg16
g75
sg15
g76
sg59
g1139
sg42
g43
sg28
g29
sg60
g1140
sS'Block.thisIndex'
p1686
g1144
sg19
F1.0863312010606023
sg17
S'slash'
p1687
sg21
I1
sS'Block.thisTrialN'
p1688
I1
sS'Block.thisRepN'
p1689
I0
sS'Block.thisN'
p1690
I1
sg44
g49
sg22
F0.31833968417413416
sg30
g40
sS'trials.thisN'
p1691
I39
sg61
g1151
sg41
g12
sg62
g1155
sg18
I0
sS'trials.thisRepN'
p1692
I39
sS'trials.thisTrialN'
p1693
I0
sa(dp1694
S'trials.thisIndex'
p1695
g31
(g69
S'\x00\x00\x00\x00'
p1696
tp1697
Rp1698
sg20
S'bracketleft'
p1699
sg16
g75
sg15
g145
sg59
g1139
sg42
g43
sg28
g29
sg60
g1140
sS'Block.thisIndex'
p1700
g1144
sg19
F1.2709029688430746
sg17
S'slash'
p1701
sg21
I1
sS'Block.thisTrialN'
p1702
I1
sS'Block.thisRepN'
p1703
I0
sS'Block.thisN'
p1704
I1
sg44
g49
sg22
F0.43360395221861836
sg30
g40
sS'trials.thisN'
p1705
I40
sg61
g1151
sg41
g12
sg62
g1155
sg18
I0
sS'trials.thisRepN'
p1706
I40
sS'trials.thisTrialN'
p1707
I0
sa(dp1708
S'trials.thisIndex'
p1709
g31
(g69
S'\x00\x00\x00\x00'
p1710
tp1711
Rp1712
sg20
S'bracketleft'
p1713
sg16
g75
sg15
g145
sg59
g1139
sg42
g43
sg28
g29
sg60
g1140
sS'Block.thisIndex'
p1714
g1144
sg19
F1.170500571042794
sg17
S'slash'
p1715
sg21
I1
sS'Block.thisTrialN'
p1716
I1
sS'Block.thisRepN'
p1717
I0
sS'Block.thisN'
p1718
I1
sg44
g49
sg22
F0.4854911823076691
sg30
g40
sS'trials.thisN'
p1719
I41
sg61
g1151
sg41
g12
sg62
g1155
sg18
I0
sS'trials.thisRepN'
p1720
I41
sS'trials.thisTrialN'
p1721
I0
sa(dp1722
S'trials.thisIndex'
p1723
g31
(g69
S'\x00\x00\x00\x00'
p1724
tp1725
Rp1726
sg20
S'bracketleft'
p1727
sg16
g75
sg15
g145
sg59
g1139
sg42
g43
sg28
g29
sg60
g1140
sS'Block.thisIndex'
p1728
g1144
sg19
F0.7689841692863411
sg17
S'slash'
p1729
sg21
I1
sS'Block.thisTrialN'
p1730
I1
sS'Block.thisRepN'
p1731
I0
sS'Block.thisN'
p1732
I1
sg44
g49
sg22
F0.4521839584413101
sg30
g40
sS'trials.thisN'
p1733
I42
sg61
g1151
sg41
g12
sg62
g1155
sg18
I0
sS'trials.thisRepN'
p1734
I42
sS'trials.thisTrialN'
p1735
I0
sa(dp1736
S'trials.thisIndex'
p1737
g31
(g69
S'\x00\x00\x00\x00'
p1738
tp1739
Rp1740
sg20
S'bracketright'
p1741
sg16
g131
sg15
g76
sg59
g1139
sg42
g43
sg28
g29
sg60
g1140
sS'Block.thisIndex'
p1742
g1144
sg19
F0.6356698843719641
sg17
S'z'
p1743
sg21
I1
sS'Block.thisTrialN'
p1744
I1
sS'Block.thisRepN'
p1745
I0
sS'Block.thisN'
p1746
I1
sg44
g49
sg22
F0.43470457301555143
sg30
g40
sS'trials.thisN'
p1747
I43
sg61
g1151
sg41
g12
sg62
g1155
sg18
I0
sS'trials.thisRepN'
p1748
I43
sS'trials.thisTrialN'
p1749
I0
sa(dp1750
S'trials.thisIndex'
p1751
g31
(g69
S'\x00\x00\x00\x00'
p1752
tp1753
Rp1754
sg20
S'bracketleft'
p1755
sg16
g75
sg15
g145
sg59
g1139
sg42
g43
sg28
g29
sg60
g1140
sS'Block.thisIndex'
p1756
g1144
sg19
F0.8875129418393044
sg17
S'slash'
p1757
sg21
I1
sS'Block.thisTrialN'
p1758
I1
sS'Block.thisRepN'
p1759
I0
sS'Block.thisN'
p1760
I1
sg44
g49
sg22
F0.41768702958688664
sg30
g40
sS'trials.thisN'
p1761
I44
sg61
g1151
sg41
g12
sg62
g1155
sg18
I0
sS'trials.thisRepN'
p1762
I44
sS'trials.thisTrialN'
p1763
I0
sa(dp1764
S'trials.thisIndex'
p1765
g31
(g69
S'\x00\x00\x00\x00'
p1766
tp1767
Rp1768
sg20
Nsg16
g75
sg15
g117
sg59
g1139
sg42
g43
sg28
g29
sg60
g1140
sS'Block.thisIndex'
p1769
g1144
sg19
F0.7693368113123142
sg17
S'slash'
p1770
sg21
I1
sS'Block.thisTrialN'
p1771
I1
sS'Block.thisRepN'
p1772
I0
sS'trials.thisRepN'
p1773
I45
sg44
g49
sS'Block.thisN'
p1774
I1
sg30
g40
sS'trials.thisN'
p1775
I45
sg61
g1151
sg41
g12
sS'trials.thisTrialN'
p1776
I0
sg18
I0
sg62
g1155
sa(dp1777
S'trials.thisIndex'
p1778
g31
(g69
S'\x00\x00\x00\x00'
p1779
tp1780
Rp1781
sg20
Nsg16
g75
sg15
g117
sg59
g1139
sg42
g43
sg28
g29
sg60
g1140
sS'Block.thisIndex'
p1782
g1144
sg19
F0.7360460084928491
sg17
S'slash'
p1783
sg21
I1
sS'Block.thisTrialN'
p1784
I1
sS'Block.thisRepN'
p1785
I0
sS'trials.thisRepN'
p1786
I46
sg44
g49
sS'Block.thisN'
p1787
I1
sg30
g40
sS'trials.thisN'
p1788
I46
sg61
g1151
sg41
g12
sS'trials.thisTrialN'
p1789
I0
sg18
I0
sg62
g1155
sa(dp1790
S'trials.thisIndex'
p1791
g31
(g69
S'\x00\x00\x00\x00'
p1792
tp1793
Rp1794
sg20
S'bracketleft'
p1795
sg16
g131
sg15
g76
sg59
g1139
sg42
g43
sg28
g29
sg60
g1140
sS'Block.thisIndex'
p1796
g1144
sg19
F0.6676851822194294
sg17
S'z'
p1797
sg21
I0
sS'Block.thisTrialN'
p1798
I1
sS'Block.thisRepN'
p1799
I0
sS'Block.thisN'
p1800
I1
sg44
g49
sg22
F0.5189408587721118
sg30
g40
sS'trials.thisN'
p1801
I47
sg61
g1151
sg41
g12
sg62
g1155
sg18
I0
sS'trials.thisRepN'
p1802
I47
sS'trials.thisTrialN'
p1803
I0
sa(dp1804
S'trials.thisIndex'
p1805
g31
(g69
S'\x00\x00\x00\x00'
p1806
tp1807
Rp1808
sg20
S'bracketright'
p1809
sg16
g75
sg15
g76
sg59
g1139
sg42
g43
sg28
g29
sg60
g1140
sS'Block.thisIndex'
p1810
g1144
sg19
F1.6208901193731435
sg17
S'slash'
p1811
sg21
I1
sS'Block.thisTrialN'
p1812
I1
sS'Block.thisRepN'
p1813
I0
sS'Block.thisN'
p1814
I1
sg44
g49
sg22
F0.9702627121496334
sg30
g40
sS'trials.thisN'
p1815
I48
sg61
g1151
sg41
g12
sg62
g1155
sg18
I0
sS'trials.thisRepN'
p1816
I48
sS'trials.thisTrialN'
p1817
I0
sa(dp1818
S'trials.thisIndex'
p1819
g31
(g69
S'\x00\x00\x00\x00'
p1820
tp1821
Rp1822
sg20
S'bracketleft'
p1823
sg16
g131
sg15
g145
sg59
g1139
sg42
g43
sg28
g29
sg60
g1140
sS'Block.thisIndex'
p1824
g1144
sg19
F0.9525616425653425
sg17
S'z'
p1825
sg21
I1
sS'Block.thisTrialN'
p1826
I1
sS'Block.thisRepN'
p1827
I0
sS'Block.thisN'
p1828
I1
sg44
g49
sg22
F0.25021203679352766
sg30
g40
sS'trials.thisN'
p1829
I49
sg61
g1151
sg41
g12
sg62
g1155
sg18
I0
sS'trials.thisRepN'
p1830
I49
sS'trials.thisTrialN'
p1831
I0
sa(dp1832
S'trials.thisIndex'
p1833
g31
(g69
S'\x00\x00\x00\x00'
p1834
tp1835
Rp1836
sg20
S'bracketright'
p1837
sg16
g131
sg15
g76
sg59
g1139
sg42
g43
sg28
g29
sg60
g1140
sS'Block.thisIndex'
p1838
g1144
sg19
F0.8195310312676156
sg17
S'z'
p1839
sg21
I1
sS'Block.thisTrialN'
p1840
I1
sS'Block.thisRepN'
p1841
I0
sS'Block.thisN'
p1842
I1
sg44
g49
sg22
F0.23390183004266873
sg30
g40
sS'trials.thisN'
p1843
I50
sg61
g1151
sg41
g12
sg62
g1155
sg18
I0
sS'trials.thisRepN'
p1844
I50
sS'trials.thisTrialN'
p1845
I0
sa(dp1846
S'trials.thisIndex'
p1847
g31
(g69
S'\x00\x00\x00\x00'
p1848
tp1849
Rp1850
sg20
S'bracketright'
p1851
sg16
g131
sg15
g76
sg59
g1139
sg42
g43
sg28
g29
sg60
g1140
sS'Block.thisIndex'
p1852
g1144
sg19
F0.736211861087213
sg17
S'z'
p1853
sg21
I1
sS'Block.thisTrialN'
p1854
I1
sS'Block.thisRepN'
p1855
I0
sS'Block.thisN'
p1856
I1
sg44
g49
sg22
F0.2677768116736843
sg30
g40
sS'trials.thisN'
p1857
I51
sg61
g1151
sg41
g12
sg62
g1155
sg18
I0
sS'trials.thisRepN'
p1858
I51
sS'trials.thisTrialN'
p1859
I0
sa(dp1860
S'trials.thisIndex'
p1861
g31
(g69
S'\x00\x00\x00\x00'
p1862
tp1863
Rp1864
sg20
S'bracketleft'
p1865
sg16
g75
sg15
g145
sg59
g1139
sg42
g43
sg28
g29
sg60
g1140
sS'Block.thisIndex'
p1866
g1144
sg19
F1.0874560429037956
sg17
S'z'
p1867
sg21
I1
sS'Block.thisTrialN'
p1868
I1
sS'Block.thisRepN'
p1869
I0
sS'Block.thisN'
p1870
I1
sg44
g49
sg22
F1.0201445216516731
sg30
g40
sS'trials.thisN'
p1871
I52
sg61
g1151
sg41
g12
sg62
g1155
sg18
I0
sS'trials.thisRepN'
p1872
I52
sS'trials.thisTrialN'
p1873
I0
sa(dp1874
S'trials.thisIndex'
p1875
g31
(g69
S'\x00\x00\x00\x00'
p1876
tp1877
Rp1878
sg20
S'bracketleft'
p1879
sg16
g131
sg15
g76
sg59
g1139
sg42
g43
sg28
g29
sg60
g1140
sS'Block.thisIndex'
p1880
g1144
sg19
F1.1526258488647727
sg17
S'slash'
p1881
sg21
I0
sS'Block.thisTrialN'
p1882
I1
sS'Block.thisRepN'
p1883
I0
sS'Block.thisN'
p1884
I1
sg44
g49
sg22
F0.3177321053681226
sg30
g40
sS'trials.thisN'
p1885
I53
sg61
g1151
sg41
g12
sg62
g1155
sg18
I0
sS'trials.thisRepN'
p1886
I53
sS'trials.thisTrialN'
p1887
I0
sa(dp1888
S'trials.thisIndex'
p1889
g31
(g69
S'\x00\x00\x00\x00'
p1890
tp1891
Rp1892
sg20
S'bracketleft'
p1893
sg16
g131
sg15
g145
sg59
g1139
sg42
g43
sg28
g29
sg60
g1140
sS'Block.thisIndex'
p1894
g1144
sg19
F0.9365486568003689
sg17
S'slash'
p1895
sg21
I1
sS'Block.thisTrialN'
p1896
I1
sS'Block.thisRepN'
p1897
I0
sS'Block.thisN'
p1898
I1
sg44
g49
sg22
F0.551821956420099
sg30
g40
sS'trials.thisN'
p1899
I54
sg61
g1151
sg41
g12
sg62
g1155
sg18
I0
sS'trials.thisRepN'
p1900
I54
sS'trials.thisTrialN'
p1901
I0
sa(dp1902
S'trials.thisIndex'
p1903
g31
(g69
S'\x00\x00\x00\x00'
p1904
tp1905
Rp1906
sg20
Nsg16
g131
sg15
g117
sg59
g1139
sg42
g43
sg28
g29
sg60
g1140
sS'Block.thisIndex'
p1907
g1144
sg19
F0.9866496873019059
sg17
S'slash'
p1908
sg21
I1
sS'Block.thisTrialN'
p1909
I1
sS'Block.thisRepN'
p1910
I0
sS'trials.thisRepN'
p1911
I55
sg44
g49
sS'Block.thisN'
p1912
I1
sg30
g40
sS'trials.thisN'
p1913
I55
sg61
g1151
sg41
g12
sS'trials.thisTrialN'
p1914
I0
sg18
I0
sg62
g1155
sa(dp1915
S'trials.thisIndex'
p1916
g31
(g69
S'\x00\x00\x00\x00'
p1917
tp1918
Rp1919
sg20
Nsg16
g75
sg15
g117
sg59
g1139
sg42
g43
sg28
g29
sg60
g1140
sS'Block.thisIndex'
p1920
g1144
sg19
F0.9533950107925193
sg17
S'slash'
p1921
sg21
I1
sS'Block.thisTrialN'
p1922
I1
sS'Block.thisRepN'
p1923
I0
sS'trials.thisRepN'
p1924
I56
sg44
g49
sS'Block.thisN'
p1925
I1
sg30
g40
sS'trials.thisN'
p1926
I56
sg61
g1151
sg41
g12
sS'trials.thisTrialN'
p1927
I0
sg18
I0
sg62
g1155
sa(dp1928
S'trials.thisIndex'
p1929
g31
(g69
S'\x00\x00\x00\x00'
p1930
tp1931
Rp1932
sg20
Nsg16
g75
sg15
g117
sg59
g1139
sg42
g43
sg28
g29
sg60
g1140
sS'Block.thisIndex'
p1933
g1144
sg19
F0.7863765231559228
sg17
S'slash'
p1934
sg21
I1
sS'Block.thisTrialN'
p1935
I1
sS'Block.thisRepN'
p1936
I0
sS'trials.thisRepN'
p1937
I57
sg44
g49
sS'Block.thisN'
p1938
I1
sg30
g40
sS'trials.thisN'
p1939
I57
sg61
g1151
sg41
g12
sS'trials.thisTrialN'
p1940
I0
sg18
I0
sg62
g1155
sa(dp1941
S'trials.thisIndex'
p1942
g31
(g69
S'\x00\x00\x00\x00'
p1943
tp1944
Rp1945
sg20
S'bracketleft'
p1946
sg16
g131
sg15
g145
sg59
g1139
sg42
g43
sg28
g29
sg60
g1140
sS'Block.thisIndex'
p1947
g1144
sg19
F1.2703512216030504
sg17
S'z'
p1948
sg21
I1
sS'Block.thisTrialN'
p1949
I1
sS'Block.thisRepN'
p1950
I0
sS'Block.thisN'
p1951
I1
sg44
g49
sg22
F1.120438540528994
sg30
g40
sS'trials.thisN'
p1952
I58
sg61
g1151
sg41
g12
sg62
g1155
sg18
I0
sS'trials.thisRepN'
p1953
I58
sS'trials.thisTrialN'
p1954
I0
sa(dp1955
S'trials.thisIndex'
p1956
g31
(g69
S'\x00\x00\x00\x00'
p1957
tp1958
Rp1959
sg20
Nsg16
g75
sg15
g117
sg59
g1139
sg42
g43
sg28
g29
sg60
g1140
sS'Block.thisIndex'
p1960
g1144
sg19
F4.614274899851807
sg17
S'slash'
p1961
sg21
I1
sS'Block.thisTrialN'
p1962
I1
sS'Block.thisRepN'
p1963
I0
sS'trials.thisRepN'
p1964
I59
sg44
g49
sS'Block.thisN'
p1965
I1
sg30
g40
sS'trials.thisN'
p1966
I59
sg61
g1151
sg41
g12
sS'trials.thisTrialN'
p1967
I0
sg18
I0
sg62
g1155
sa(dp1968
S'trials.thisIndex'
p1969
g31
(g69
S'\x00\x00\x00\x00'
p1970
tp1971
Rp1972
sg20
Nsg16
g75
sg15
g117
sg59
g1139
sg42
g43
sg28
g29
sg60
g1140
sS'Block.thisIndex'
p1973
g1144
sg19
F0.5526093457101524
sg17
S'slash'
p1974
sg21
I1
sS'Block.thisTrialN'
p1975
I1
sS'Block.thisRepN'
p1976
I0
sS'trials.thisRepN'
p1977
I60
sg44
g49
sS'Block.thisN'
p1978
I1
sg30
g40
sS'trials.thisN'
p1979
I60
sg61
g1151
sg41
g12
sS'trials.thisTrialN'
p1980
I0
sg18
I0
sg62
g1155
sa(dp1981
S'trials.thisIndex'
p1982
g31
(g69
S'\x00\x00\x00\x00'
p1983
tp1984
Rp1985
sg20
S'bracketright'
p1986
sg16
g75
sg15
g76
sg59
g1139
sg42
g43
sg28
g29
sg60
g1140
sS'Block.thisIndex'
p1987
g1144
sg19
F0.9361541411017242
sg17
S'slash'
p1988
sg21
I1
sS'Block.thisTrialN'
p1989
I1
sS'Block.thisRepN'
p1990
I0
sS'Block.thisN'
p1991
I1
sg44
g49
sg22
F0.8529449919478793
sg30
g40
sS'trials.thisN'
p1992
I61
sg61
g1151
sg41
g12
sg62
g1155
sg18
I0
sS'trials.thisRepN'
p1993
I61
sS'trials.thisTrialN'
p1994
I0
sa(dp1995
S'trials.thisIndex'
p1996
g31
(g69
S'\x00\x00\x00\x00'
p1997
tp1998
Rp1999
sg20
S'bracketleft'
p2000
sg16
g75
sg15
g145
sg59
g1139
sg42
g43
sg28
g29
sg60
g1140
sS'Block.thisIndex'
p2001
g1144
sg19
F1.8048079188865813
sg17
S'slash'
p2002
sg21
I1
sS'Block.thisTrialN'
p2003
I1
sS'Block.thisRepN'
p2004
I0
sS'Block.thisN'
p2005
I1
sg44
g49
sg22
F0.5848368856168236
sg30
g40
sS'trials.thisN'
p2006
I62
sg61
g1151
sg41
g12
sg62
g1155
sg18
I0
sS'trials.thisRepN'
p2007
I62
sS'trials.thisTrialN'
p2008
I0
sa(dp2009
S'trials.thisIndex'
p2010
g31
(g69
S'\x00\x00\x00\x00'
p2011
tp2012
Rp2013
sg20
S'bracketleft'
p2014
sg16
g131
sg15
g145
sg59
g1139
sg42
g43
sg28
g29
sg60
g1140
sS'Block.thisIndex'
p2015
g1144
sg19
F0.7870563545766345
sg17
S'slash'
p2016
sg21
I1
sS'Block.thisTrialN'
p2017
I1
sS'Block.thisRepN'
p2018
I0
sS'Block.thisN'
p2019
I1
sg44
g49
sg22
F0.41831759786327893
sg30
g40
sS'trials.thisN'
p2020
I63
sg61
g1151
sg41
g12
sg62
g1155
sg18
I0
sS'trials.thisRepN'
p2021
I63
sS'trials.thisTrialN'
p2022
I0
sa(dp2023
S'trials.thisIndex'
p2024
g31
(g69
S'\x00\x00\x00\x00'
p2025
tp2026
Rp2027
sg20
S'bracketleft'
p2028
sg16
g75
sg15
g145
sg59
g1139
sg42
g43
sg28
g29
sg60
g1140
sS'Block.thisIndex'
p2029
g1144
sg19
F0.9866956662390294
sg17
S'slash'
p2030
sg21
I1
sS'Block.thisTrialN'
p2031
I1
sS'Block.thisRepN'
p2032
I0
sS'Block.thisN'
p2033
I1
sg44
g49
sg22
F0.635147284492632
sg30
g40
sS'trials.thisN'
p2034
I64
sg61
g1151
sg41
g12
sg62
g1155
sg18
I0
sS'trials.thisRepN'
p2035
I64
sS'trials.thisTrialN'
p2036
I0
sa(dp2037
S'trials.thisIndex'
p2038
g31
(g69
S'\x00\x00\x00\x00'
p2039
tp2040
Rp2041
sg20
S'bracketleft'
p2042
sg16
g131
sg15
g145
sg59
g1139
sg42
g43
sg28
g29
sg60
g1140
sS'Block.thisIndex'
p2043
g1144
sg19
F0.7697896217341622
sg17
S'z'
p2044
sg21
I1
sS'Block.thisTrialN'
p2045
I1
sS'Block.thisRepN'
p2046
I0
sS'Block.thisN'
p2047
I1
sg44
g49
sg22
F0.46841164942088653
sg30
g40
sS'trials.thisN'
p2048
I65
sg61
g1151
sg41
g12
sg62
g1155
sg18
I0
sS'trials.thisRepN'
p2049
I65
sS'trials.thisTrialN'
p2050
I0
sa(dp2051
S'trials.thisIndex'
p2052
g31
(g69
S'\x00\x00\x00\x00'
p2053
tp2054
Rp2055
sg20
Nsg16
g75
sg15
g117
sg59
g1139
sg42
g43
sg28
g29
sg60
g1140
sS'Block.thisIndex'
p2056
g1144
sg19
F0.9031507066392805
sg17
S'slash'
p2057
sg21
I1
sS'Block.thisTrialN'
p2058
I1
sS'Block.thisRepN'
p2059
I0
sS'trials.thisRepN'
p2060
I66
sg44
g49
sS'Block.thisN'
p2061
I1
sg30
g40
sS'trials.thisN'
p2062
I66
sg61
g1151
sg41
g12
sS'trials.thisTrialN'
p2063
I0
sg18
I0
sg62
g1155
sa(dp2064
S'trials.thisIndex'
p2065
g31
(g69
S'\x00\x00\x00\x00'
p2066
tp2067
Rp2068
sg20
Nsg16
g131
sg15
g117
sg59
g1139
sg42
g43
sg28
g29
sg60
g1140
sS'Block.thisIndex'
p2069
g1144
sg19
F0.9699375753843924
sg17
S'z'
p2070
sg21
I1
sS'Block.thisTrialN'
p2071
I1
sS'Block.thisRepN'
p2072
I0
sS'trials.thisRepN'
p2073
I67
sg44
g49
sS'Block.thisN'
p2074
I1
sg30
g40
sS'trials.thisN'
p2075
I67
sg61
g1151
sg41
g12
sS'trials.thisTrialN'
p2076
I0
sg18
I0
sg62
g1155
sa(dp2077
S'trials.thisIndex'
p2078
g31
(g69
S'\x00\x00\x00\x00'
p2079
tp2080
Rp2081
sg20
S'bracketleft'
p2082
sg16
g75
sg15
g145
sg59
g1139
sg42
g43
sg28
g29
sg60
g1140
sS'Block.thisIndex'
p2083
g1144
sg19
F0.8028308246066445
sg17
S'bracketleft'
p2084
sg21
I1
sS'Block.thisTrialN'
p2085
I1
sS'Block.thisRepN'
p2086
I0
sS'Block.thisN'
p2087
I1
sg44
g49
sg22
F1.304293529532515
sg30
g40
sS'trials.thisN'
p2088
I68
sg61
g1151
sg41
g12
sg62
g1155
sg18
I0
sS'trials.thisRepN'
p2089
I68
sS'trials.thisTrialN'
p2090
I0
sa(dp2091
S'trials.thisIndex'
p2092
g31
(g69
S'\x00\x00\x00\x00'
p2093
tp2094
Rp2095
sg20
S'bracketright'
p2096
sg16
g75
sg15
g76
sg59
g1139
sg42
g43
sg28
g29
sg60
g1140
sS'Block.thisIndex'
p2097
g1144
sg19
F0.8520475816312683
sg17
S'slash'
p2098
sg21
I1
sS'Block.thisTrialN'
p2099
I1
sS'Block.thisRepN'
p2100
I0
sS'Block.thisN'
p2101
I1
sg44
g49
sg22
F0.5008657998005219
sg30
g40
sS'trials.thisN'
p2102
I69
sg61
g1151
sg41
g12
sg62
g1155
sg18
I0
sS'trials.thisRepN'
p2103
I69
sS'trials.thisTrialN'
p2104
I0
sa(dp2105
S'trials.thisIndex'
p2106
g31
(g69
S'\x00\x00\x00\x00'
p2107
tp2108
Rp2109
sg20
Nsg16
g131
sg15
g117
sg59
g1139
sg42
g43
sg28
g29
sg60
g1140
sS'Block.thisIndex'
p2110
g1144
sg19
F1.1861990937213704
sg17
S'z'
p2111
sg21
I1
sS'Block.thisTrialN'
p2112
I1
sS'Block.thisRepN'
p2113
I0
sS'trials.thisRepN'
p2114
I70
sg44
g49
sS'Block.thisN'
p2115
I1
sg30
g40
sS'trials.thisN'
p2116
I70
sg61
g1151
sg41
g12
sS'trials.thisTrialN'
p2117
I0
sg18
I0
sg62
g1155
sa(dp2118
S'trials.thisIndex'
p2119
g31
(g69
S'\x00\x00\x00\x00'
p2120
tp2121
Rp2122
sg20
S'bracketright'
p2123
sg16
g131
sg15
g76
sg59
g1139
sg42
g43
sg28
g29
sg60
g1140
sS'Block.thisIndex'
p2124
g1144
sg19
F0.9023198015693197
sg17
S'z'
p2125
sg21
I1
sS'Block.thisTrialN'
p2126
I1
sS'Block.thisRepN'
p2127
I0
sS'Block.thisN'
p2128
I1
sg44
g49
sg22
F0.2506574577437277
sg30
g40
sS'trials.thisN'
p2129
I71
sg61
g1151
sg41
g12
sg62
g1155
sg18
I0
sS'trials.thisRepN'
p2130
I71
sS'trials.thisTrialN'
p2131
I0
sa(dp2132
S'trials.thisIndex'
p2133
g31
(g69
S'\x00\x00\x00\x00'
p2134
tp2135
Rp2136
sg20
S'bracketleft'
p2137
sg16
g131
sg15
g145
sg59
g1139
sg42
g43
sg28
g29
sg60
g1140
sS'Block.thisIndex'
p2138
g1144
sg19
F0.7523221415685839
sg17
S'z'
p2139
sg21
I1
sS'Block.thisTrialN'
p2140
I1
sS'Block.thisRepN'
p2141
I0
sS'Block.thisN'
p2142
I1
sg44
g49
sg22
F0.23470851406818838
sg30
g40
sS'trials.thisN'
p2143
I72
sg61
g1151
sg41
g12
sg62
g1155
sg18
I0
sS'trials.thisRepN'
p2144
I72
sS'trials.thisTrialN'
p2145
I0
sa(dp2146
S'trials.thisIndex'
p2147
g31
(g69
S'\x00\x00\x00\x00'
p2148
tp2149
Rp2150
sg20
S'bracketright'
p2151
sg16
g131
sg15
g76
sg59
g1139
sg42
g43
sg28
g29
sg60
g1140
sS'Block.thisIndex'
p2152
g1144
sg19
F1.2703614847596327
sg17
S'z'
p2153
sg21
I1
sS'Block.thisTrialN'
p2154
I1
sS'Block.thisRepN'
p2155
I0
sS'Block.thisN'
p2156
I1
sg44
g49
sg22
F0.30076464613921416
sg30
g40
sS'trials.thisN'
p2157
I73
sg61
g1151
sg41
g12
sg62
g1155
sg18
I0
sS'trials.thisRepN'
p2158
I73
sS'trials.thisTrialN'
p2159
I0
sa(dp2160
S'trials.thisIndex'
p2161
g31
(g69
S'\x00\x00\x00\x00'
p2162
tp2163
Rp2164
sg20
S'bracketleft'
p2165
sg16
g131
sg15
g145
sg59
g1139
sg42
g43
sg28
g29
sg60
g1140
sS'Block.thisIndex'
p2166
g1144
sg19
F0.7686405588410707
sg17
S'z'
p2167
sg21
I1
sS'Block.thisTrialN'
p2168
I1
sS'Block.thisRepN'
p2169
I0
sS'Block.thisN'
p2170
I1
sg44
g49
sg22
F0.30083895138523076
sg30
g40
sS'trials.thisN'
p2171
I74
sg61
g1151
sg41
g12
sg62
g1155
sg18
I0
sS'trials.thisRepN'
p2172
I74
sS'trials.thisTrialN'
p2173
I0
sa(dp2174
S'trials.thisIndex'
p2175
g31
(g69
S'\x00\x00\x00\x00'
p2176
tp2177
Rp2178
sg20
S'bracketleft'
p2179
sg16
g75
sg15
g76
sg59
g1139
sg42
g43
sg28
g29
sg60
g1140
sS'Block.thisIndex'
p2180
g1144
sg19
F1.1207078457300668
sg17
S'slash'
p2181
sg21
I0
sS'Block.thisTrialN'
p2182
I1
sS'Block.thisRepN'
p2183
I0
sS'Block.thisN'
p2184
I1
sg44
g49
sg22
F0.8519814869086986
sg30
g40
sS'trials.thisN'
p2185
I75
sg61
g1151
sg41
g12
sg62
g1155
sg18
I0
sS'trials.thisRepN'
p2186
I75
sS'trials.thisTrialN'
p2187
I0
sa(dp2188
S'trials.thisIndex'
p2189
g31
(g69
S'\x00\x00\x00\x00'
p2190
tp2191
Rp2192
sg20
S'bracketleft'
p2193
sg16
g131
sg15
g76
sg59
g1139
sg42
g43
sg28
g29
sg60
g1140
sS'Block.thisIndex'
p2194
g1144
sg19
F1.1196786564942158
sg17
S'z'
p2195
sg21
I0
sS'Block.thisTrialN'
p2196
I1
sS'Block.thisRepN'
p2197
I0
sS'Block.thisN'
p2198
I1
sg44
g49
sg22
F0.6350963792410766
sg30
g40
sS'trials.thisN'
p2199
I76
sg61
g1151
sg41
g12
sg62
g1155
sg18
I0
sS'trials.thisRepN'
p2200
I76
sS'trials.thisTrialN'
p2201
I0
sa(dp2202
S'trials.thisIndex'
p2203
g31
(g69
S'\x00\x00\x00\x00'
p2204
tp2205
Rp2206
sg20
Nsg16
g131
sg15
g117
sg59
g1139
sg42
g43
sg28
g29
sg60
g1140
sS'Block.thisIndex'
p2207
g1144
sg19
F1.0034172202613263
sg17
S'z'
p2208
sg21
I1
sS'Block.thisTrialN'
p2209
I1
sS'Block.thisRepN'
p2210
I0
sS'trials.thisRepN'
p2211
I77
sg44
g49
sS'Block.thisN'
p2212
I1
sg30
g40
sS'trials.thisN'
p2213
I77
sg61
g1151
sg41
g12
sS'trials.thisTrialN'
p2214
I0
sg18
I0
sg62
g1155
sa(dp2215
S'trials.thisIndex'
p2216
g31
(g69
S'\x00\x00\x00\x00'
p2217
tp2218
Rp2219
sg20
S'bracketleft'
p2220
sg16
g75
sg15
g76
sg59
g1139
sg42
g43
sg28
g29
sg60
g1140
sS'Block.thisIndex'
p2221
g1144
sg19
F1.6888338510070753
sg17
S'slash'
p2222
sg21
I0
sS'Block.thisTrialN'
p2223
I1
sS'Block.thisRepN'
p2224
I0
sS'Block.thisN'
p2225
I1
sg44
g49
sg22
F0.317369200189205
sg30
g40
sS'trials.thisN'
p2226
I78
sg61
g1151
sg41
g12
sg62
g1155
sg18
I0
sS'trials.thisRepN'
p2227
I78
sS'trials.thisTrialN'
p2228
I0
sa(dp2229
S'trials.thisIndex'
p2230
g31
(g69
S'\x00\x00\x00\x00'
p2231
tp2232
Rp2233
sg20
S'bracketright'
p2234
sg16
g75
sg15
g76
sg59
g1139
sg42
g43
sg28
g29
sg60
g1140
sS'Block.thisIndex'
p2235
g1144
sg19
F1.906884853142401
sg17
S'slash'
p2236
sg21
I1
sS'Block.thisTrialN'
p2237
I1
sS'Block.thisRepN'
p2238
I0
sS'Block.thisN'
p2239
I1
sg44
g49
sg22
F0.6021976289648592
sg30
g40
sS'trials.thisN'
p2240
I79
sg61
g1151
sg41
g12
sg62
g1155
sg18
I0
sS'trials.thisRepN'
p2241
I79
sS'trials.thisTrialN'
p2242
I0
sa(dp2243
g42
g43
sS'Block.thisTrialN'
p2244
I1
sg60
g1140
sg30
g40
sg44
g49
sS'Block.thisN'
p2245
I1
sg59
g1139
sg61
g1151
sg41
g12
sg62
g1155
sg28
g29
sS'Block.thisRepN'
p2246
I0
sS'Block.thisIndex'
p2247
g1144
sa(dp2248
g42
g43
sg41
g12
sg44
g49
sg23
S'return'
p2249
sg28
g29
sg24
F11.667532876992482
sg30
g40
sasS'loops'
p2250
(lp2251
g0
(cpsychopy.data.trial
TrialHandler
p2252
g2
Ntp2253
Rp2254
(dp2255
S'origin'
p2256
NsS'thisTrial'
p2257
(lp2258
sS'_exp'
p2259
I382725680
sg11
S'Block'
p2260
sg6
I-1
sS'thisRepN'
p2261
I1
sg25
I01
sg26
g27
sS'data'
p2262
g0
(cpsychopy.data.base
DataHandler
p2263
c__builtin__
dict
p2264
(dp2265
S'ran'
p2266
cnumpy.ma.core
_mareconstruct
p2267
(cnumpy.ma.core
MaskedArray
p2268
cnumpy
ndarray
p2269
(I0
tp2270
S'b'
p2271
tp2272
Rp2273
(I1
(I2
I1
tp2274
g32
(S'f4'
p2275
I0
I1
tp2276
Rp2277
(I3
S'<'
p2278
NNNI-1
I-1
I0
tp2279
bI00
S'\x00\x00\x80?\x00\x00\x80?'
p2280
S'\x00\x00'
p2281
Ntp2282
bsS'order'
p2283
g2267
(g2268
g2269
g2270
g2271
tp2284
Rp2285
(I1
(I2
I1
tp2286
g2277
I00
S'\x00\x00\x00\x00\x00\x00\x80?'
p2287
S'\x00\x00'
p2288
Ntp2289
bstp2290
Rp2291
(dp2292
S'isNumeric'
p2293
(dp2294
g2266
I01
sg2283
I01
ssS'trials'
p2295
g2254
sS'dataTypes'
p2296
(lp2297
g2266
ag2283
asS'dataShape'
p2298
(lp2299
I2
aI1
asbsS'method'
p2300
S'sequential'
p2301
sS'sequenceIndices'
p2302
cnumpy.core.multiarray
_reconstruct
p2303
(g2269
(I0
tp2304
g2271
tp2305
Rp2306
(I1
(I2
I1
tp2307
g69
I00
S'\x00\x00\x00\x00\x01\x00\x00\x00'
p2308
tp2309
bsS'finished'
p2310
I01
sS'nReps'
p2311
I1
sS'nRemaining'
p2312
I-1
sS'trialList'
p2313
(lp2314
ccollections
OrderedDict
p2315
((lp2316
(lp2317
g59
ag77
aa(lp2318
g60
ag78
aa(lp2319
g61
ag89
aa(lp2320
g62
ag98
aatp2321
Rp2322
ag2315
((lp2323
(lp2324
g59
ag1139
aa(lp2325
g60
ag1140
aa(lp2326
g61
ag1151
aa(lp2327
g62
ag1155
aatp2328
Rp2329
asS'seed'
p2330
NsS'thisIndex'
p2331
g1144
sS'thisN'
p2332
I2
sS'thisTrialN'
p2333
I0
sS'nTotal'
p2334
I2
sbag0
(g2252
g2
Ntp2335
Rp2336
(dp2337
g2256
Nsg2257
(lp2338
sg2259
I382725680
sg11
g2295
sg6
I-1
sg2261
I80
sg25
I01
sg26
g27
sg2262
g0
(g2263
g2264
(dp2339
g15
g2303
(g2269
(I0
tp2340
g2271
tp2341
Rp2342
(I1
(I1
I80
tp2343
g32
(S'O4'
p2344
I0
I1
tp2345
Rp2346
(I3
S'|'
p2347
NNNI-1
I-1
I63
tp2348
bI00
(lp2349
g76
ag76
ag117
ag117
ag145
ag145
ag145
ag145
ag117
ag117
ag76
ag145
ag76
ag76
ag117
ag117
ag145
ag145
ag76
ag117
ag76
ag145
ag76
ag117
ag76
ag76
ag117
ag76
ag117
ag117
ag76
ag145
ag117
ag117
ag117
ag76
ag145
ag117
ag117
ag145
ag117
ag76
ag76
ag117
ag76
ag76
ag117
ag76
ag117
ag145
ag76
ag76
ag76
ag76
ag145
ag145
ag76
ag117
ag76
ag76
ag117
ag145
ag117
ag117
ag76
ag145
ag76
ag145
ag117
ag76
ag145
ag145
ag145
ag145
ag117
ag145
ag117
ag117
ag145
ag117
atp2350
bsg2266
g2267
(g2268
g2269
g2270
g2271
tp2351
Rp2352
(I1
(I1
I80
tp2353
g2277
I00
S'\x00\x00\x80?\x00\x00\x80?\x00\x00\x80?\x00\x00\x80?\x00\x00\x80?\x00\x00\x80?\x00\x00\x80?\x00\x00\x80?\x00\x00\x80?\x00\x00\x80?\x00\x00\x80?\x00\x00\x80?\x00\x00\x80?\x00\x00\x80?\x00\x00\x80?\x00\x00\x80?\x00\x00\x80?\x00\x00\x80?\x00\x00\x80?\x00\x00\x80?\x00\x00\x80?\x00\x00\x80?\x00\x00\x80?\x00\x00\x80?\x00\x00\x80?\x00\x00\x80?\x00\x00\x80?\x00\x00\x80?\x00\x00\x80?\x00\x00\x80?\x00\x00\x80?\x00\x00\x80?\x00\x00\x80?\x00\x00\x80?\x00\x00\x80?\x00\x00\x80?\x00\x00\x80?\x00\x00\x80?\x00\x00\x80?\x00\x00\x80?\x00\x00\x80?\x00\x00\x80?\x00\x00\x80?\x00\x00\x80?\x00\x00\x80?\x00\x00\x80?\x00\x00\x80?\x00\x00\x80?\x00\x00\x80?\x00\x00\x80?\x00\x00\x80?\x00\x00\x80?\x00\x00\x80?\x00\x00\x80?\x00\x00\x80?\x00\x00\x80?\x00\x00\x80?\x00\x00\x80?\x00\x00\x80?\x00\x00\x80?\x00\x00\x80?\x00\x00\x80?\x00\x00\x80?\x00\x00\x80?\x00\x00\x80?\x00\x00\x80?\x00\x00\x80?\x00\x00\x80?\x00\x00\x80?\x00\x00\x80?\x00\x00\x80?\x00\x00\x80?\x00\x00\x80?\x00\x00\x80?\x00\x00\x80?\x00\x00\x80?\x00\x00\x80?\x00\x00\x80?\x00\x00\x80?\x00\x00\x80?'
p2354
S'\x00\x00\x00\x00\x00\x00\x00\x00\x00\x00\x00\x00\x00\x00\x00\x00\x00\x00\x00\x00\x00\x00\x00\x00\x00\x00\x00\x00\x00\x00\x00\x00\x00\x00\x00\x00\x00\x00\x00\x00\x00\x00\x00\x00\x00\x00\x00\x00\x00\x00\x00\x00\x00\x00\x00\x00\x00\x00\x00\x00\x00\x00\x00\x00\x00\x00\x00\x00\x00\x00\x00\x00\x00\x00\x00\x00\x00\x00\x00\x00'
p2355
Ntp2356
bsg16
g2303
(g2269
(I0
tp2357
g2271
tp2358
Rp2359
(I1
(I1
I80
tp2360
g2346
I00
(lp2361
g75
ag75
ag75
ag131
ag75
ag75
ag131
ag75
ag75
ag75
ag131
ag75
ag75
ag75
ag131
ag75
ag75
ag131
ag75
ag131
ag131
ag131
ag75
ag75
ag75
ag75
ag75
ag131
ag75
ag75
ag75
ag131
ag75
ag131
ag131
ag131
ag131
ag131
ag75
ag131
ag131
ag131
ag131
ag131
ag131
ag75
ag75
ag75
ag75
ag75
ag75
ag75
ag131
ag131
ag75
ag75
ag131
ag131
ag75
ag131
ag131
ag131
ag131
ag131
ag75
ag75
ag131
ag131
ag75
ag75
ag75
ag131
ag75
ag131
ag75
ag131
ag75
ag75
ag131
ag75
atp2362
bsg20
g2303
(g2269
(I0
tp2363
g2271
tp2364
Rp2365
(I1
(I1
I80
tp2366
g2346
I00
(lp2367
NaNaNaNaNaNaNaNaNaNaNaNaNaNaNaNaNaNaNaNaNaNaNaNaNaNaNaNaNaNaNaNaNaNaNaNaNaNaNaNaNaNaNaNaNaNaNaNaNaNaNaNaNaNaNaNaNaNaNaNaNaNaNaNaNaNaNaNaNaNaNaNaNaNaNaNaNaNaNaNatp2368
bsg17
g2303
(g2269
(I0
tp2369
g2271
tp2370
Rp2371
(I1
(I1
I80
tp2372
g2346
I00
(lp2373
g83
ag105
ag119
ag133
ag147
ag160
ag173
ag186
ag199
ag212
ag225
ag238
ag251
ag264
ag277
ag290
ag303
ag316
ag329
ag342
ag355
ag368
ag381
ag394
ag407
ag420
ag433
ag446
ag459
ag472
ag485
ag498
ag511
ag524
ag537
ag550
ag563
ag576
ag589
ag602
ag615
ag628
ag641
ag654
ag667
ag680
ag693
ag706
ag719
ag732
ag745
ag758
ag771
ag784
ag797
ag810
ag823
ag836
ag849
ag862
ag875
ag888
ag901
ag914
ag927
ag940
ag953
ag966
ag979
ag992
ag1005
ag1018
ag1031
ag1044
ag1057
ag1070
ag1083
ag1096
ag1109
ag1122
atp2374
bsg2283
g2267
(g2268
g2269
g2270
g2271
tp2375
Rp2376
(I1
(I1
I80
tp2377
g2277
I00
S'\x00\x00\x00\x00\x00\x00\x80?\x00\x00\x00@\x00\x00@@\x00\x00\x80@\x00\x00\xa0@\x00\x00\xc0@\x00\x00\xe0@\x00\x00\x00A\x00\x00\x10A\x00\x00 A\x00\x000A\x00\x00@A\x00\x00PA\x00\x00`A\x00\x00pA\x00\x00\x80A\x00\x00\x88A\x00\x00\x90A\x00\x00\x98A\x00\x00\xa0A\x00\x00\xa8A\x00\x00\xb0A\x00\x00\xb8A\x00\x00\xc0A\x00\x00\xc8A\x00\x00\xd0A\x00\x00\xd8A\x00\x00\xe0A\x00\x00\xe8A\x00\x00\xf0A\x00\x00\xf8A\x00\x00\x00B\x00\x00\x04B\x00\x00\x08B\x00\x00\x0cB\x00\x00\x10B\x00\x00\x14B\x00\x00\x18B\x00\x00\x1cB\x00\x00 B\x00\x00$B\x00\x00(B\x00\x00,B\x00\x000B\x00\x004B\x00\x008B\x00\x00<B\x00\x00@B\x00\x00DB\x00\x00HB\x00\x00LB\x00\x00PB\x00\x00TB\x00\x00XB\x00\x00\\B\x00\x00`B\x00\x00dB\x00\x00hB\x00\x00lB\x00\x00pB\x00\x00tB\x00\x00xB\x00\x00|B\x00\x00\x80B\x00\x00\x82B\x00\x00\x84B\x00\x00\x86B\x00\x00\x88B\x00\x00\x8aB\x00\x00\x8cB\x00\x00\x8eB\x00\x00\x90B\x00\x00\x92B\x00\x00\x94B\x00\x00\x96B\x00\x00\x98B\x00\x00\x9aB\x00\x00\x9cB\x00\x00\x9eB'
p2378
S'\x00\x00\x00\x00\x00\x00\x00\x00\x00\x00\x00\x00\x00\x00\x00\x00\x00\x00\x00\x00\x00\x00\x00\x00\x00\x00\x00\x00\x00\x00\x00\x00\x00\x00\x00\x00\x00\x00\x00\x00\x00\x00\x00\x00\x00\x00\x00\x00\x00\x00\x00\x00\x00\x00\x00\x00\x00\x00\x00\x00\x00\x00\x00\x00\x00\x00\x00\x00\x00\x00\x00\x00\x00\x00\x00\x00\x00\x00\x00\x00'
p2379
Ntp2380
bsg21
g2267
(g2268
g2269
g2270
g2271
tp2381
Rp2382
(I1
(I1
I80
tp2383
g2277
I00
S'\x00\x00\x00\x00\x00\x00\x00\x00\x00\x00\x80?\x00\x00\x80?\x00\x00\x00\x00\x00\x00\x00\x00\x00\x00\x00\x00\x00\x00\x00\x00\x00\x00\x80?\x00\x00\x80?\x00\x00\x00\x00\x00\x00\x00\x00\x00\x00\x00\x00\x00\x00\x00\x00\x00\x00\x80?\x00\x00\x80?\x00\x00\x00\x00\x00\x00\x00\x00\x00\x00\x00\x00\x00\x00\x80?\x00\x00\x00\x00\x00\x00\x00\x00\x00\x00\x00\x00\x00\x00\x80?\x00\x00\x00\x00\x00\x00\x00\x00\x00\x00\x80?\x00\x00\x00\x00\x00\x00\x80?\x00\x00\x80?\x00\x00\x00\x00\x00\x00\x00\x00\x00\x00\x80?\x00\x00\x80?\x00\x00\x80?\x00\x00\x00\x00\x00\x00\x00\x00\x00\x00\x80?\x00\x00\x80?\x00\x00\x00\x00\x00\x00\x80?\x00\x00\x00\x00\x00\x00\x00\x00\x00\x00\x80?\x00\x00\x00\x00\x00\x00\x00\x00\x00\x00\x80?\x00\x00\x00\x00\x00\x00\x80?\x00\x00\x00\x00\x00\x00\x00\x00\x00\x00\x00\x00\x00\x00\x00\x00\x00\x00\x00\x00\x00\x00\x00\x00\x00\x00\x00\x00\x00\x00\x00\x00\x00\x00\x80?\x00\x00\x00\x00\x00\x00\x00\x00\x00\x00\x80?\x00\x00\x00\x00\x00\x00\x80?\x00\x00\x80?\x00\x00\x00\x00\x00\x00\x00\x00\x00\x00\x00\x00\x00\x00\x00\x00\x00\x00\x80?\x00\x00\x00\x00\x00\x00\x00\x00\x00\x00\x00\x00\x00\x00\x00\x00\x00\x00\x00\x00\x00\x00\x80?\x00\x00\x00\x00\x00\x00\x80?\x00\x00\x80?\x00\x00\x00\x00\x00\x00\x80?'
p2384
S'\x00\x00\x00\x00\x00\x00\x00\x00\x00\x00\x00\x00\x00\x00\x00\x00\x00\x00\x00\x00\x00\x00\x00\x00\x00\x00\x00\x00\x00\x00\x00\x00\x00\x00\x00\x00\x00\x00\x00\x00\x00\x00\x00\x00\x00\x00\x00\x00\x00\x00\x00\x00\x00\x00\x00\x00\x00\x00\x00\x00\x00\x00\x00\x00\x00\x00\x00\x00\x00\x00\x00\x00\x00\x00\x00\x00\x00\x00\x00\x00'
p2385
Ntp2386
bsg19
g2267
(g2268
g2269
g2270
g2271
tp2387
Rp2388
(I1
(I1
I80
tp2389
g2277
I00
S'\xb2"Z?\xd4\xaf"?\xdf\x96\xde>\xd6\x1d\x16?>\xa2\x99>\x98)\x89>\xe3K\xe7>\x04\xa6\xe7>\x06-\xd6>\x0f\xd6\x99>yc\xa2>s\x94\xde>\xf0\xa1\x04?\x8fR\xe7>\n\x01\xe7>H~\xde>?\x14\xcd>z.\xd6>^\x87\xbc>\x18\x8e\xbc>#\x9a\x9a>}\x81\x00?\xde\x0b\r?\xd5\xce\xde>>\x9d\xcd>\x8e}\xe7>\xd6\\\xe7>\x80\x8b\x04?G\xad@?F\x9f\x00?{\xcc\xa4?\x93\xc8\x11?Q\xdc\xef>\xcc\xb3\xef>A\x93"?\xe1~\x00?4\xe9\xe6>nc\xde>\xf1\x8d\xf8>\xb4\xbb\xe7>\x17l\xf0>\n\xe5\x04?/l\x00?\x96W\xd6>\xc0\xb6\xe7>e\x7f\r?\'\x07\xf8>\xc0\x9c\x11?ti\xf0>aj\x00?\xff\x8e\xf7>\x99\xa9\xde>\xe8\xdc\xef>\xffK\xe7>\x98\xda\xef>n\x14\xce>\xeci\x00?3\xe4\xe6>\xf3\x80\xef>~\x17\x1a?\xd9\x0e\xf8>=?\xcd>\xce.\xde>S\x11\t?k\x98\x11?-\xdd\xef>\x90\x10\xf0>"\x89\r?,\x9c\xd5>\xdb\xe3\x08?\xdaM\xde>\x80\'\x1a?\xab3\xc5>\xccx\xf8>$\x14\xcd>\xf4\xf0\xe6>>=\xc5>\xf6.\xd6>\xc4g\xef>Y\xe6\xde>'
p2390
S'\x00\x00\x00\x00\x00\x00\x00\x00\x00\x00\x00\x00\x00\x00\x00\x00\x00\x00\x00\x00\x00\x00\x00\x00\x00\x00\x00\x00\x00\x00\x00\x00\x00\x00\x00\x00\x00\x00\x00\x00\x00\x00\x00\x00\x00\x00\x00\x00\x00\x00\x00\x00\x00\x00\x00\x00\x00\x00\x00\x00\x00\x00\x00\x00\x00\x00\x00\x00\x00\x00\x00\x00\x00\x00\x00\x00\x00\x00\x00\x00'
p2391
Ntp2392
bsg18
g2267
(g2268
g2269
g2270
g2271
tp2393
Rp2394
(I1
(I1
I80
tp2395
g2277
I00
S'\x00\x00\x00\x00\x00\x00\x00\x00\x00\x00\x00\x00\x00\x00\x00\x00\x00\x00\x00\x00\x00\x00\x00\x00\x00\x00\x00\x00\x00\x00\x00\x00\x00\x00\x00\x00\x00\x00\x00\x00\x00\x00\x00\x00\x00\x00\x00\x00\x00\x00\x00\x00\x00\x00\x00\x00\x00\x00\x00\x00\x00\x00\x00\x00\x00\x00\x00\x00\x00\x00\x00\x00\x00\x00\x00\x00\x00\x00\x00\x00\x00\x00\x00\x00\x00\x00\x00\x00\x00\x00\x00\x00\x00\x00\x00\x00\x00\x00\x00\x00\x00\x00\x00\x00\x00\x00\x00\x00\x00\x00\x00\x00\x00\x00\x00\x00\x00\x00\x00\x00\x00\x00\x00\x00\x00\x00\x00\x00\x00\x00\x00\x00\x00\x00\x00\x00\x00\x00\x00\x00\x00\x00\x00\x00\x00\x00\x00\x00\x00\x00\x00\x00\x00\x00\x00\x00\x00\x00\x00\x00\x00\x00\x00\x00\x00\x00\x00\x00\x00\x00\x00\x00\x00\x00\x00\x00\x00\x00\x00\x00\x00\x00\x00\x00\x00\x00\x00\x00\x00\x00\x00\x00\x00\x00\x00\x00\x00\x00\x00\x00\x00\x00\x00\x00\x00\x00\x00\x00\x00\x00\x00\x00\x00\x00\x00\x00\x00\x00\x00\x00\x00\x00\x00\x00\x00\x00\x00\x00\x00\x00\x00\x00\x00\x00\x00\x00\x00\x00\x00\x00\x00\x00\x00\x00\x00\x00\x00\x00\x00\x00\x00\x00\x00\x00\x00\x00\x00\x00\x00\x00\x00\x00\x00\x00\x00\x00\x00\x00\x00\x00\x00\x00\x00\x00\x00\x00\x00\x00\x00\x00\x00\x00\x00\x00\x00\x00\x00\x00\x00\x00\x00\x00\x00\x00\x00\x00\x00\x00\x00\x00\x00\x00\x00\x00\x00\x00\x00\x00\x00\x00\x00\x00\x00\x00\x00\x00\x00\x00\x00\x00'
p2396
S'\x00\x00\x00\x00\x00\x00\x00\x00\x00\x00\x00\x00\x00\x00\x00\x00\x00\x00\x00\x00\x00\x00\x00\x00\x00\x00\x00\x00\x00\x00\x00\x00\x00\x00\x00\x00\x00\x00\x00\x00\x00\x00\x00\x00\x00\x00\x00\x00\x00\x00\x00\x00\x00\x00\x00\x00\x00\x00\x00\x00\x00\x00\x00\x00\x00\x00\x00\x00\x00\x00\x00\x00\x00\x00\x00\x00\x00\x00\x00\x00'
p2397
Ntp2398
bstp2399
Rp2400
(dp2401
g2293
(dp2402
g2266
I01
sg20
I00
sg16
I00
sg17
I00
sg19
I01
sg18
I01
sg21
I01
sg15
I00
sg2283
I01
ssg2295
g2336
sg2296
(lp2403
g2266
ag2283
ag15
ag16
ag17
ag18
ag19
ag20
ag21
asg2298
(lp2404
I1
aI80
asbsg2300
g2301
sg2302
g2303
(g2269
(I0
tp2405
g2271
tp2406
Rp2407
(I1
(I1
I80
tp2408
g69
I00
S'\x00\x00\x00\x00\x00\x00\x00\x00\x00\x00\x00\x00\x00\x00\x00\x00\x00\x00\x00\x00\x00\x00\x00\x00\x00\x00\x00\x00\x00\x00\x00\x00\x00\x00\x00\x00\x00\x00\x00\x00\x00\x00\x00\x00\x00\x00\x00\x00\x00\x00\x00\x00\x00\x00\x00\x00\x00\x00\x00\x00\x00\x00\x00\x00\x00\x00\x00\x00\x00\x00\x00\x00\x00\x00\x00\x00\x00\x00\x00\x00\x00\x00\x00\x00\x00\x00\x00\x00\x00\x00\x00\x00\x00\x00\x00\x00\x00\x00\x00\x00\x00\x00\x00\x00\x00\x00\x00\x00\x00\x00\x00\x00\x00\x00\x00\x00\x00\x00\x00\x00\x00\x00\x00\x00\x00\x00\x00\x00\x00\x00\x00\x00\x00\x00\x00\x00\x00\x00\x00\x00\x00\x00\x00\x00\x00\x00\x00\x00\x00\x00\x00\x00\x00\x00\x00\x00\x00\x00\x00\x00\x00\x00\x00\x00\x00\x00\x00\x00\x00\x00\x00\x00\x00\x00\x00\x00\x00\x00\x00\x00\x00\x00\x00\x00\x00\x00\x00\x00\x00\x00\x00\x00\x00\x00\x00\x00\x00\x00\x00\x00\x00\x00\x00\x00\x00\x00\x00\x00\x00\x00\x00\x00\x00\x00\x00\x00\x00\x00\x00\x00\x00\x00\x00\x00\x00\x00\x00\x00\x00\x00\x00\x00\x00\x00\x00\x00\x00\x00\x00\x00\x00\x00\x00\x00\x00\x00\x00\x00\x00\x00\x00\x00\x00\x00\x00\x00\x00\x00\x00\x00\x00\x00\x00\x00\x00\x00\x00\x00\x00\x00\x00\x00\x00\x00\x00\x00\x00\x00\x00\x00\x00\x00\x00\x00\x00\x00\x00\x00\x00\x00\x00\x00\x00\x00\x00\x00\x00\x00\x00\x00\x00\x00\x00\x00\x00\x00\x00\x00\x00\x00\x00\x00\x00\x00\x00\x00\x00\x00\x00\x00'
p2409
tp2410
bsg2310
I01
sg2311
I80
sg2312
I-1
sg2313
(lp2411
Nasg2330
Nsg2331
g1120
sg2332
I80
sg2333
I0
sg2334
I80
sbag0
(g2252
g2
Ntp2412
Rp2413
(dp2414
g2256
Nsg2257
(lp2415
sg2259
I382725680
sg11
g2295
sg6
I-1
sg2261
I80
sg25
I01
sg26
g27
sg2262
g0
(g2263
g2264
(dp2416
g15
g2303
(g2269
(I0
tp2417
g2271
tp2418
Rp2419
(I1
(I1
I80
tp2420
g2346
I00
(lp2421
g117
ag145
ag76
ag117
ag117
ag145
ag145
ag145
ag76
ag76
ag145
ag76
ag145
ag76
ag76
ag145
ag76
ag145
ag76
ag145
ag117
ag145
ag76
ag117
ag117
ag76
ag76
ag117
ag76
ag76
ag76
ag76
ag117
ag145
ag117
ag145
ag145
ag76
ag145
ag76
ag145
ag145
ag145
ag76
ag145
ag117
ag117
ag76
ag76
ag145
ag76
ag76
ag145
ag76
ag145
ag117
ag117
ag117
ag145
ag117
ag117
ag76
ag145
ag145
ag145
ag145
ag117
ag117
ag145
ag76
ag117
ag76
ag145
ag76
ag145
ag76
ag76
ag117
ag76
ag76
atp2422
bsg2266
g2267
(g2268
g2269
g2270
g2271
tp2423
Rp2424
(I1
(I1
I80
tp2425
g2277
I00
S'\x00\x00\x80?\x00\x00\x80?\x00\x00\x80?\x00\x00\x80?\x00\x00\x80?\x00\x00\x80?\x00\x00\x80?\x00\x00\x80?\x00\x00\x80?\x00\x00\x80?\x00\x00\x80?\x00\x00\x80?\x00\x00\x80?\x00\x00\x80?\x00\x00\x80?\x00\x00\x80?\x00\x00\x80?\x00\x00\x80?\x00\x00\x80?\x00\x00\x80?\x00\x00\x80?\x00\x00\x80?\x00\x00\x80?\x00\x00\x80?\x00\x00\x80?\x00\x00\x80?\x00\x00\x80?\x00\x00\x80?\x00\x00\x80?\x00\x00\x80?\x00\x00\x80?\x00\x00\x80?\x00\x00\x80?\x00\x00\x80?\x00\x00\x80?\x00\x00\x80?\x00\x00\x80?\x00\x00\x80?\x00\x00\x80?\x00\x00\x80?\x00\x00\x80?\x00\x00\x80?\x00\x00\x80?\x00\x00\x80?\x00\x00\x80?\x00\x00\x80?\x00\x00\x80?\x00\x00\x80?\x00\x00\x80?\x00\x00\x80?\x00\x00\x80?\x00\x00\x80?\x00\x00\x80?\x00\x00\x80?\x00\x00\x80?\x00\x00\x80?\x00\x00\x80?\x00\x00\x80?\x00\x00\x80?\x00\x00\x80?\x00\x00\x80?\x00\x00\x80?\x00\x00\x80?\x00\x00\x80?\x00\x00\x80?\x00\x00\x80?\x00\x00\x80?\x00\x00\x80?\x00\x00\x80?\x00\x00\x80?\x00\x00\x80?\x00\x00\x80?\x00\x00\x80?\x00\x00\x80?\x00\x00\x80?\x00\x00\x80?\x00\x00\x80?\x00\x00\x80?\x00\x00\x80?\x00\x00\x80?'
p2426
S'\x00\x00\x00\x00\x00\x00\x00\x00\x00\x00\x00\x00\x00\x00\x00\x00\x00\x00\x00\x00\x00\x00\x00\x00\x00\x00\x00\x00\x00\x00\x00\x00\x00\x00\x00\x00\x00\x00\x00\x00\x00\x00\x00\x00\x00\x00\x00\x00\x00\x00\x00\x00\x00\x00\x00\x00\x00\x00\x00\x00\x00\x00\x00\x00\x00\x00\x00\x00\x00\x00\x00\x00\x00\x00\x00\x00\x00\x00\x00\x00'
p2427
Ntp2428
bsg20
g2303
(g2269
(I0
tp2429
g2271
tp2430
Rp2431
(I1
(I1
I80
tp2432
g2346
I00
(lp2433
Nag1161
ag1175
aNaNag1215
ag1229
ag1243
ag1257
ag1271
ag1285
ag1299
ag1313
ag1327
ag1341
ag1355
ag1369
ag1383
ag1397
ag1411
aNag1438
ag1452
aNaNag1492
ag1506
aNag1533
ag1547
ag1561
ag1575
aNag1602
aNag1629
ag1643
ag1657
ag1671
ag1685
ag1699
ag1713
ag1727
ag1741
ag1755
aNaNag1795
ag1809
ag1823
ag1837
ag1851
ag1865
ag1879
ag1893
aNaNaNag1946
aNaNag1986
ag2000
ag2014
ag2028
ag2042
aNaNag2082
ag2096
aNag2123
ag2137
ag2151
ag2165
ag2179
ag2193
aNag2220
ag2234
atp2434
bsg16
g2303
(g2269
(I0
tp2435
g2271
tp2436
Rp2437
(I1
(I1
I80
tp2438
g2346
I00
(lp2439
g131
ag131
ag131
ag75
ag131
ag131
ag131
ag131
ag75
ag131
ag131
ag131
ag75
ag75
ag75
ag131
ag75
ag131
ag131
ag75
ag75
ag131
ag75
ag131
ag131
ag75
ag75
ag131
ag131
ag131
ag131
ag131
ag75
ag131
ag131
ag131
ag75
ag131
ag131
ag75
ag75
ag75
ag75
ag131
ag75
ag75
ag75
ag131
ag75
ag131
ag131
ag131
ag75
ag131
ag131
ag131
ag75
ag75
ag131
ag75
ag75
ag75
ag75
ag131
ag75
ag131
ag75
ag131
ag75
ag75
ag131
ag131
ag131
ag131
ag131
ag75
ag131
ag131
ag75
ag75
atp2440
bsg22
g2267
(g2268
g2269
g2270
g2271
tp2441
Rp2442
(I1
(I1
I80
tp2443
g2277
I00
S'\x00\x00\x00\x00\xf3t\xed?\tO\xde>\x00\x00\x00\x00\x00\x00\x00\x00\xee\x8e@?\x04[\x00?\x13\xa4V?$R\r?\xfe=\x1a?\xfap\x11?I\x9b\xf8>\xe1\xdf&?\x12t\x11?4_\xcd>\xb2\x19\r?\x93\xcd\xb5?z\xe7\xde>.M\xe7>\x05\xa2\x04?\x00\x00\x00\x00\xfc\xa6\xcd>\xe0f\xde>\x00\x00\x00\x00\x00\x00\x00\x00#)\x80>EB\x9a>\x00\x00\x00\x00\xc2\xda\xf7>\xe5\xfd\xf7>\x8e\x0c\xe7>\x15\xf1\xd5>\x00\x00\x00\x00J\xa8\x84?\x00\x00\x00\x00\xa8\xc2\x08?\xbd\x02\xf8>\xb7\xaf\x04?\xd7\xeab?k\xfd\xa2>V\x01\xde>M\x92\xf8>\xa8\x84\xe7>\x99\x91\xde>\x13\xdb\xd5>\x00\x00\x00\x00\x00\x00\x00\x00O\xd9\x04?#cx?\xcb\x1b\x80>\xf6\x83o>\x0b\x1a\x89>\x18\x94\x82?\xc8\xad\xa2>4D\r?\x00\x00\x00\x00\x00\x00\x00\x00\x00\x00\x00\x00\x88j\x8f?\x00\x00\x00\x00\x00\x00\x00\x00\x9aZZ?\xdf\xb7\x15?\xb9-\xd6>\x03\x99"?\xa7\xd3\xef>\x00\x00\x00\x00\x00\x00\x00\x00\x17\xf3\xa6?\xbe8\x00?\x00\x00\x00\x00-V\x80>nWp>\xd3\xfd\x99>\x90\x07\x9a>u\x1bZ?\xad\x95"?\x00\x00\x00\x007~\xa2>\xa0)\x1a?'
p2444
S'\x01\x00\x00\x01\x01\x00\x00\x00\x00\x00\x00\x00\x00\x00\x00\x00\x00\x00\x00\x00\x01\x00\x00\x01\x01\x00\x00\x01\x00\x00\x00\x00\x01\x00\x01\x00\x00\x00\x00\x00\x00\x00\x00\x00\x00\x01\x01\x00\x00\x00\x00\x00\x00\x00\x00\x01\x01\x01\x00\x01\x01\x00\x00\x00\x00\x00\x01\x01\x00\x00\x01\x00\x00\x00\x00\x00\x00\x01\x00\x00'
p2445
Ntp2446
bsg17
g2303
(g2269
(I0
tp2447
g2271
tp2448
Rp2449
(I1
(I1
I80
tp2450
g2346
I00
(lp2451
g1145
ag1163
ag1177
ag1190
ag1203
ag1217
ag1231
ag1245
ag1259
ag1273
ag1287
ag1301
ag1315
ag1329
ag1343
ag1357
ag1371
ag1385
ag1399
ag1413
ag1426
ag1440
ag1454
ag1467
ag1480
ag1494
ag1508
ag1521
ag1535
ag1549
ag1563
ag1577
ag1590
ag1604
ag1617
ag1631
ag1645
ag1659
ag1673
ag1687
ag1701
ag1715
ag1729
ag1743
ag1757
ag1770
ag1783
ag1797
ag1811
ag1825
ag1839
ag1853
ag1867
ag1881
ag1895
ag1908
ag1921
ag1934
ag1948
ag1961
ag1974
ag1988
ag2002
ag2016
ag2030
ag2044
ag2057
ag2070
ag2084
ag2098
ag2111
ag2125
ag2139
ag2153
ag2167
ag2181
ag2195
ag2208
ag2222
ag2236
atp2452
bsg2283
g2267
(g2268
g2269
g2270
g2271
tp2453
Rp2454
(I1
(I1
I80
tp2455
g2277
I00
S'\x00\x00\x00\x00\x00\x00\x80?\x00\x00\x00@\x00\x00@@\x00\x00\x80@\x00\x00\xa0@\x00\x00\xc0@\x00\x00\xe0@\x00\x00\x00A\x00\x00\x10A\x00\x00 A\x00\x000A\x00\x00@A\x00\x00PA\x00\x00`A\x00\x00pA\x00\x00\x80A\x00\x00\x88A\x00\x00\x90A\x00\x00\x98A\x00\x00\xa0A\x00\x00\xa8A\x00\x00\xb0A\x00\x00\xb8A\x00\x00\xc0A\x00\x00\xc8A\x00\x00\xd0A\x00\x00\xd8A\x00\x00\xe0A\x00\x00\xe8A\x00\x00\xf0A\x00\x00\xf8A\x00\x00\x00B\x00\x00\x04B\x00\x00\x08B\x00\x00\x0cB\x00\x00\x10B\x00\x00\x14B\x00\x00\x18B\x00\x00\x1cB\x00\x00 B\x00\x00$B\x00\x00(B\x00\x00,B\x00\x000B\x00\x004B\x00\x008B\x00\x00<B\x00\x00@B\x00\x00DB\x00\x00HB\x00\x00LB\x00\x00PB\x00\x00TB\x00\x00XB\x00\x00\\B\x00\x00`B\x00\x00dB\x00\x00hB\x00\x00lB\x00\x00pB\x00\x00tB\x00\x00xB\x00\x00|B\x00\x00\x80B\x00\x00\x82B\x00\x00\x84B\x00\x00\x86B\x00\x00\x88B\x00\x00\x8aB\x00\x00\x8cB\x00\x00\x8eB\x00\x00\x90B\x00\x00\x92B\x00\x00\x94B\x00\x00\x96B\x00\x00\x98B\x00\x00\x9aB\x00\x00\x9cB\x00\x00\x9eB'
p2456
S'\x00\x00\x00\x00\x00\x00\x00\x00\x00\x00\x00\x00\x00\x00\x00\x00\x00\x00\x00\x00\x00\x00\x00\x00\x00\x00\x00\x00\x00\x00\x00\x00\x00\x00\x00\x00\x00\x00\x00\x00\x00\x00\x00\x00\x00\x00\x00\x00\x00\x00\x00\x00\x00\x00\x00\x00\x00\x00\x00\x00\x00\x00\x00\x00\x00\x00\x00\x00\x00\x00\x00\x00\x00\x00\x00\x00\x00\x00\x00\x00'
p2457
Ntp2458
bsg21
g2267
(g2268
g2269
g2270
g2271
tp2459
Rp2460
(I1
(I1
I80
tp2461
g2277
I00
S'\x00\x00\x80?\x00\x00\x80?\x00\x00\x80?\x00\x00\x80?\x00\x00\x80?\x00\x00\x80?\x00\x00\x80?\x00\x00\x80?\x00\x00\x80?\x00\x00\x80?\x00\x00\x80?\x00\x00\x80?\x00\x00\x80?\x00\x00\x80?\x00\x00\x80?\x00\x00\x80?\x00\x00\x80?\x00\x00\x80?\x00\x00\x80?\x00\x00\x00\x00\x00\x00\x80?\x00\x00\x80?\x00\x00\x80?\x00\x00\x80?\x00\x00\x80?\x00\x00\x80?\x00\x00\x80?\x00\x00\x80?\x00\x00\x80?\x00\x00\x80?\x00\x00\x80?\x00\x00\x80?\x00\x00\x80?\x00\x00\x80?\x00\x00\x80?\x00\x00\x80?\x00\x00\x80?\x00\x00\x80?\x00\x00\x80?\x00\x00\x80?\x00\x00\x80?\x00\x00\x80?\x00\x00\x80?\x00\x00\x80?\x00\x00\x80?\x00\x00\x80?\x00\x00\x80?\x00\x00\x00\x00\x00\x00\x80?\x00\x00\x80?\x00\x00\x80?\x00\x00\x80?\x00\x00\x80?\x00\x00\x00\x00\x00\x00\x80?\x00\x00\x80?\x00\x00\x80?\x00\x00\x80?\x00\x00\x80?\x00\x00\x80?\x00\x00\x80?\x00\x00\x80?\x00\x00\x80?\x00\x00\x80?\x00\x00\x80?\x00\x00\x80?\x00\x00\x80?\x00\x00\x80?\x00\x00\x80?\x00\x00\x80?\x00\x00\x80?\x00\x00\x80?\x00\x00\x80?\x00\x00\x80?\x00\x00\x80?\x00\x00\x00\x00\x00\x00\x00\x00\x00\x00\x80?\x00\x00\x00\x00\x00\x00\x80?'
p2462
S'\x00\x00\x00\x00\x00\x00\x00\x00\x00\x00\x00\x00\x00\x00\x00\x00\x00\x00\x00\x00\x00\x00\x00\x00\x00\x00\x00\x00\x00\x00\x00\x00\x00\x00\x00\x00\x00\x00\x00\x00\x00\x00\x00\x00\x00\x00\x00\x00\x00\x00\x00\x00\x00\x00\x00\x00\x00\x00\x00\x00\x00\x00\x00\x00\x00\x00\x00\x00\x00\x00\x00\x00\x00\x00\x00\x00\x00\x00\x00\x00'
p2463
Ntp2464
bsg19
g2267
(g2268
g2269
g2270
g2271
tp2465
Rp2466
(I1
(I1
I80
tp2467
g2277
I00
S'\xd7\x1d\'?\x01\x00\'?8\xa6\x04@d\x93!@\x98L\x1d@\x1e\xa8^?_v^?Nm\x1f@\x9c\x00\xe5?=\x9f\x13@\xc5\xc8\xf1?\x8f\xfe\x88?\\&\xf8?L\xee\x08@\x83\xaf@?\xea\xd6\x04?\xafE\x8f?.\xf6\x08@\x98e\x1a?\x84\x19\xba?\xd3X=@\xb9\xa9\xb3?\xf9\x07\xb8?_f\xbe?\x10w<?\xad=I?\x92\xfdo?\xafHZ?"[/?\xb1ek?\t\x82"?#S\r?\xc0\x04\xd6?\xbcG+?\xae[Z?1\xca\x15?e\xcfQ?\xf1\xab|?\xb3\xd9\xd3?\xe7\x0c\x8b?\xf3\xac\xa2?\xf6\xd2\x95?&\xdcD?C\xbb"?\x0c4c?B\xf3D?\x83m<?k\xed*?Ty\xcf?\x14\xdbs?\xc9\xccQ?ax<?\xc21\x8b?>\x89\x93?\xa7\xc1o?\x13\x95|?\xb2\x11t?\xf9OI?\xde\x9a\xa2?$\xa8\x93@\xcew\r?\xcc\xa7o?\xf2\x03\xe7?\x86|I?\x16\x98|?\xef\x10E?\xe24g?\xd4Mx?R\x86M?\xca\x1fZ?_\xd5\x97?n\xfef?/\x98@?5\x9b\xa2?\xa1\xc5D?[s\x8f?\xa1Q\x8f?\xfao\x80?\xb5+\xd8?\xce\x14\xf4?'
p2468
S'\x00\x00\x00\x00\x00\x00\x00\x00\x00\x00\x00\x00\x00\x00\x00\x00\x00\x00\x00\x00\x00\x00\x00\x00\x00\x00\x00\x00\x00\x00\x00\x00\x00\x00\x00\x00\x00\x00\x00\x00\x00\x00\x00\x00\x00\x00\x00\x00\x00\x00\x00\x00\x00\x00\x00\x00\x00\x00\x00\x00\x00\x00\x00\x00\x00\x00\x00\x00\x00\x00\x00\x00\x00\x00\x00\x00\x00\x00\x00\x00'
p2469
Ntp2470
bsg18
g2267
(g2268
g2269
g2270
g2271
tp2471
Rp2472
(I1
(I1
I80
tp2473
g2277
I00
S'\x00\x00\x00\x00\x00\x00\x00\x00\x00\x00\x00\x00\x00\x00\x00\x00\x00\x00\x00\x00\x00\x00\x00\x00\x00\x00\x00\x00\x00\x00\x00\x00\x00\x00\x00\x00\x00\x00\x00\x00\x00\x00\x00\x00\x00\x00\x00\x00\x00\x00\x00\x00\x00\x00\x00\x00\x00\x00\x00\x00\x00\x00\x00\x00\x00\x00\x00\x00\x00\x00\x00\x00\x00\x00\x00\x00\x00\x00\x00\x00\x00\x00\x00\x00\x00\x00\x00\x00\x00\x00\x00\x00\x00\x00\x00\x00\x00\x00\x00\x00\x00\x00\x00\x00\x00\x00\x00\x00\x00\x00\x00\x00\x00\x00\x00\x00\x00\x00\x00\x00\x00\x00\x00\x00\x00\x00\x00\x00\x00\x00\x00\x00\x00\x00\x00\x00\x00\x00\x00\x00\x00\x00\x00\x00\x00\x00\x00\x00\x00\x00\x00\x00\x00\x00\x00\x00\x00\x00\x00\x00\x00\x00\x00\x00\x00\x00\x00\x00\x00\x00\x00\x00\x00\x00\x00\x00\x00\x00\x00\x00\x00\x00\x00\x00\x00\x00\x00\x00\x00\x00\x00\x00\x00\x00\x00\x00\x00\x00\x00\x00\x00\x00\x00\x00\x00\x00\x00\x00\x00\x00\x00\x00\x00\x00\x00\x00\x00\x00\x00\x00\x00\x00\x00\x00\x00\x00\x00\x00\x00\x00\x00\x00\x00\x00\x00\x00\x00\x00\x00\x00\x00\x00\x00\x00\x00\x00\x00\x00\x00\x00\x00\x00\x00\x00\x00\x00\x00\x00\x00\x00\x00\x00\x00\x00\x00\x00\x00\x00\x00\x00\x00\x00\x00\x00\x00\x00\x00\x00\x00\x00\x00\x00\x00\x00\x00\x00\x00\x00\x00\x00\x00\x00\x00\x00\x00\x00\x00\x00\x00\x00\x00\x00\x00\x00\x00\x00\x00\x00\x00\x00\x00\x00\x00\x00\x00\x00\x00\x00\x00\x00'
p2474
S'\x00\x00\x00\x00\x00\x00\x00\x00\x00\x00\x00\x00\x00\x00\x00\x00\x00\x00\x00\x00\x00\x00\x00\x00\x00\x00\x00\x00\x00\x00\x00\x00\x00\x00\x00\x00\x00\x00\x00\x00\x00\x00\x00\x00\x00\x00\x00\x00\x00\x00\x00\x00\x00\x00\x00\x00\x00\x00\x00\x00\x00\x00\x00\x00\x00\x00\x00\x00\x00\x00\x00\x00\x00\x00\x00\x00\x00\x00\x00\x00'
p2475
Ntp2476
bstp2477
Rp2478
(dp2479
g2293
(dp2480
g22
I01
sg2266
I01
sg20
I00
sg16
I00
sg17
I00
sg19
I01
sg18
I01
sg21
I01
sg15
I00
sg2283
I01
ssg2295
g2413
sg2296
(lp2481
g2266
ag2283
ag15
ag16
ag17
ag18
ag19
ag20
ag21
ag22
asg2298
(lp2482
I1
aI80
asbsg2300
g2301
sg2302
g2303
(g2269
(I0
tp2483
g2271
tp2484
Rp2485
(I1
(I1
I80
tp2486
g69
I00
S'\x00\x00\x00\x00\x00\x00\x00\x00\x00\x00\x00\x00\x00\x00\x00\x00\x00\x00\x00\x00\x00\x00\x00\x00\x00\x00\x00\x00\x00\x00\x00\x00\x00\x00\x00\x00\x00\x00\x00\x00\x00\x00\x00\x00\x00\x00\x00\x00\x00\x00\x00\x00\x00\x00\x00\x00\x00\x00\x00\x00\x00\x00\x00\x00\x00\x00\x00\x00\x00\x00\x00\x00\x00\x00\x00\x00\x00\x00\x00\x00\x00\x00\x00\x00\x00\x00\x00\x00\x00\x00\x00\x00\x00\x00\x00\x00\x00\x00\x00\x00\x00\x00\x00\x00\x00\x00\x00\x00\x00\x00\x00\x00\x00\x00\x00\x00\x00\x00\x00\x00\x00\x00\x00\x00\x00\x00\x00\x00\x00\x00\x00\x00\x00\x00\x00\x00\x00\x00\x00\x00\x00\x00\x00\x00\x00\x00\x00\x00\x00\x00\x00\x00\x00\x00\x00\x00\x00\x00\x00\x00\x00\x00\x00\x00\x00\x00\x00\x00\x00\x00\x00\x00\x00\x00\x00\x00\x00\x00\x00\x00\x00\x00\x00\x00\x00\x00\x00\x00\x00\x00\x00\x00\x00\x00\x00\x00\x00\x00\x00\x00\x00\x00\x00\x00\x00\x00\x00\x00\x00\x00\x00\x00\x00\x00\x00\x00\x00\x00\x00\x00\x00\x00\x00\x00\x00\x00\x00\x00\x00\x00\x00\x00\x00\x00\x00\x00\x00\x00\x00\x00\x00\x00\x00\x00\x00\x00\x00\x00\x00\x00\x00\x00\x00\x00\x00\x00\x00\x00\x00\x00\x00\x00\x00\x00\x00\x00\x00\x00\x00\x00\x00\x00\x00\x00\x00\x00\x00\x00\x00\x00\x00\x00\x00\x00\x00\x00\x00\x00\x00\x00\x00\x00\x00\x00\x00\x00\x00\x00\x00\x00\x00\x00\x00\x00\x00\x00\x00\x00\x00\x00\x00\x00\x00\x00\x00\x00\x00\x00\x00\x00'
p2487
tp2488
bsg2310
I01
sg2311
I80
sg2312
I-1
sg2313
(lp2489
Nasg2330
Nsg2331
g2233
sg2332
I80
sg2333
I0
sg2334
I80
sbasS'savePickle'
p2490
I00
sb.